
App_1_1_Grupo_4_2024.elf:     file format elf32-littlearm

Sections:
Idx Name          Size      VMA       LMA       File off  Algn
  0 .isr_vector   000001ac  08000000  08000000  00001000  2**0
                  CONTENTS, ALLOC, LOAD, READONLY, DATA
  1 .text         0000307c  080001ac  080001ac  000011ac  2**2
                  CONTENTS, ALLOC, LOAD, READONLY, CODE
  2 .rodata       00000020  08003228  08003228  00004228  2**2
                  CONTENTS, ALLOC, LOAD, READONLY, DATA
  3 .ARM.extab    00000000  08003248  08003248  0000500c  2**0
                  CONTENTS
  4 .ARM          00000008  08003248  08003248  00004248  2**2
                  CONTENTS, ALLOC, LOAD, READONLY, DATA
  5 .preinit_array 00000000  08003250  08003250  0000500c  2**0
                  CONTENTS, ALLOC, LOAD, DATA
  6 .init_array   00000004  08003250  08003250  00004250  2**2
                  CONTENTS, ALLOC, LOAD, READONLY, DATA
  7 .fini_array   00000004  08003254  08003254  00004254  2**2
                  CONTENTS, ALLOC, LOAD, READONLY, DATA
  8 .data         0000000c  20000000  08003258  00005000  2**2
                  CONTENTS, ALLOC, LOAD, DATA
  9 .ccmram       00000000  10000000  10000000  0000500c  2**0
                  CONTENTS
 10 .bss          0000077c  2000000c  2000000c  0000500c  2**2
                  ALLOC
 11 ._user_heap_stack 00000600  20000788  20000788  0000500c  2**0
                  ALLOC
 12 .ARM.attributes 00000030  00000000  00000000  0000500c  2**0
                  CONTENTS, READONLY
 13 .debug_info   0000e62f  00000000  00000000  0000503c  2**0
                  CONTENTS, READONLY, DEBUGGING, OCTETS
 14 .debug_abbrev 00001f23  00000000  00000000  0001366b  2**0
                  CONTENTS, READONLY, DEBUGGING, OCTETS
 15 .debug_aranges 00000b88  00000000  00000000  00015590  2**3
                  CONTENTS, READONLY, DEBUGGING, OCTETS
 16 .debug_rnglists 000008e2  00000000  00000000  00016118  2**0
                  CONTENTS, READONLY, DEBUGGING, OCTETS
 17 .debug_macro  00023d7d  00000000  00000000  000169fa  2**0
                  CONTENTS, READONLY, DEBUGGING, OCTETS
 18 .debug_line   0000d6bb  00000000  00000000  0003a777  2**0
                  CONTENTS, READONLY, DEBUGGING, OCTETS
 19 .debug_str    000d93cb  00000000  00000000  00047e32  2**0
                  CONTENTS, READONLY, DEBUGGING, OCTETS
 20 .comment      00000043  00000000  00000000  001211fd  2**0
                  CONTENTS, READONLY
 21 .debug_frame  0000308c  00000000  00000000  00121240  2**2
                  CONTENTS, READONLY, DEBUGGING, OCTETS
 22 .debug_line_str 00000070  00000000  00000000  001242cc  2**0
                  CONTENTS, READONLY, DEBUGGING, OCTETS

Disassembly of section .text:

080001ac <__do_global_dtors_aux>:
 80001ac:	b510      	push	{r4, lr}
 80001ae:	4c05      	ldr	r4, [pc, #20]	@ (80001c4 <__do_global_dtors_aux+0x18>)
 80001b0:	7823      	ldrb	r3, [r4, #0]
 80001b2:	b933      	cbnz	r3, 80001c2 <__do_global_dtors_aux+0x16>
 80001b4:	4b04      	ldr	r3, [pc, #16]	@ (80001c8 <__do_global_dtors_aux+0x1c>)
 80001b6:	b113      	cbz	r3, 80001be <__do_global_dtors_aux+0x12>
 80001b8:	4804      	ldr	r0, [pc, #16]	@ (80001cc <__do_global_dtors_aux+0x20>)
 80001ba:	f3af 8000 	nop.w
 80001be:	2301      	movs	r3, #1
 80001c0:	7023      	strb	r3, [r4, #0]
 80001c2:	bd10      	pop	{r4, pc}
 80001c4:	2000000c 	.word	0x2000000c
 80001c8:	00000000 	.word	0x00000000
 80001cc:	08003210 	.word	0x08003210

080001d0 <frame_dummy>:
 80001d0:	b508      	push	{r3, lr}
 80001d2:	4b03      	ldr	r3, [pc, #12]	@ (80001e0 <frame_dummy+0x10>)
 80001d4:	b11b      	cbz	r3, 80001de <frame_dummy+0xe>
 80001d6:	4903      	ldr	r1, [pc, #12]	@ (80001e4 <frame_dummy+0x14>)
 80001d8:	4803      	ldr	r0, [pc, #12]	@ (80001e8 <frame_dummy+0x18>)
 80001da:	f3af 8000 	nop.w
 80001de:	bd08      	pop	{r3, pc}
 80001e0:	00000000 	.word	0x00000000
 80001e4:	20000010 	.word	0x20000010
 80001e8:	08003210 	.word	0x08003210

080001ec <__aeabi_uldivmod>:
 80001ec:	b953      	cbnz	r3, 8000204 <__aeabi_uldivmod+0x18>
 80001ee:	b94a      	cbnz	r2, 8000204 <__aeabi_uldivmod+0x18>
 80001f0:	2900      	cmp	r1, #0
 80001f2:	bf08      	it	eq
 80001f4:	2800      	cmpeq	r0, #0
 80001f6:	bf1c      	itt	ne
 80001f8:	f04f 31ff 	movne.w	r1, #4294967295
 80001fc:	f04f 30ff 	movne.w	r0, #4294967295
 8000200:	f000 b96a 	b.w	80004d8 <__aeabi_idiv0>
 8000204:	f1ad 0c08 	sub.w	ip, sp, #8
 8000208:	e96d ce04 	strd	ip, lr, [sp, #-16]!
 800020c:	f000 f806 	bl	800021c <__udivmoddi4>
 8000210:	f8dd e004 	ldr.w	lr, [sp, #4]
 8000214:	e9dd 2302 	ldrd	r2, r3, [sp, #8]
 8000218:	b004      	add	sp, #16
 800021a:	4770      	bx	lr

0800021c <__udivmoddi4>:
 800021c:	e92d 47f0 	stmdb	sp!, {r4, r5, r6, r7, r8, r9, sl, lr}
 8000220:	9d08      	ldr	r5, [sp, #32]
 8000222:	460c      	mov	r4, r1
 8000224:	2b00      	cmp	r3, #0
 8000226:	d14e      	bne.n	80002c6 <__udivmoddi4+0xaa>
 8000228:	4694      	mov	ip, r2
 800022a:	458c      	cmp	ip, r1
 800022c:	4686      	mov	lr, r0
 800022e:	fab2 f282 	clz	r2, r2
 8000232:	d962      	bls.n	80002fa <__udivmoddi4+0xde>
 8000234:	b14a      	cbz	r2, 800024a <__udivmoddi4+0x2e>
 8000236:	f1c2 0320 	rsb	r3, r2, #32
 800023a:	4091      	lsls	r1, r2
 800023c:	fa20 f303 	lsr.w	r3, r0, r3
 8000240:	fa0c fc02 	lsl.w	ip, ip, r2
 8000244:	4319      	orrs	r1, r3
 8000246:	fa00 fe02 	lsl.w	lr, r0, r2
 800024a:	ea4f 471c 	mov.w	r7, ip, lsr #16
 800024e:	fa1f f68c 	uxth.w	r6, ip
 8000252:	fbb1 f4f7 	udiv	r4, r1, r7
 8000256:	ea4f 431e 	mov.w	r3, lr, lsr #16
 800025a:	fb07 1114 	mls	r1, r7, r4, r1
 800025e:	ea43 4301 	orr.w	r3, r3, r1, lsl #16
 8000262:	fb04 f106 	mul.w	r1, r4, r6
 8000266:	4299      	cmp	r1, r3
 8000268:	d90a      	bls.n	8000280 <__udivmoddi4+0x64>
 800026a:	eb1c 0303 	adds.w	r3, ip, r3
 800026e:	f104 30ff 	add.w	r0, r4, #4294967295
 8000272:	f080 8112 	bcs.w	800049a <__udivmoddi4+0x27e>
 8000276:	4299      	cmp	r1, r3
 8000278:	f240 810f 	bls.w	800049a <__udivmoddi4+0x27e>
 800027c:	3c02      	subs	r4, #2
 800027e:	4463      	add	r3, ip
 8000280:	1a59      	subs	r1, r3, r1
 8000282:	fa1f f38e 	uxth.w	r3, lr
 8000286:	fbb1 f0f7 	udiv	r0, r1, r7
 800028a:	fb07 1110 	mls	r1, r7, r0, r1
 800028e:	ea43 4301 	orr.w	r3, r3, r1, lsl #16
 8000292:	fb00 f606 	mul.w	r6, r0, r6
 8000296:	429e      	cmp	r6, r3
 8000298:	d90a      	bls.n	80002b0 <__udivmoddi4+0x94>
 800029a:	eb1c 0303 	adds.w	r3, ip, r3
 800029e:	f100 31ff 	add.w	r1, r0, #4294967295
 80002a2:	f080 80fc 	bcs.w	800049e <__udivmoddi4+0x282>
 80002a6:	429e      	cmp	r6, r3
 80002a8:	f240 80f9 	bls.w	800049e <__udivmoddi4+0x282>
 80002ac:	4463      	add	r3, ip
 80002ae:	3802      	subs	r0, #2
 80002b0:	1b9b      	subs	r3, r3, r6
 80002b2:	ea40 4004 	orr.w	r0, r0, r4, lsl #16
 80002b6:	2100      	movs	r1, #0
 80002b8:	b11d      	cbz	r5, 80002c2 <__udivmoddi4+0xa6>
 80002ba:	40d3      	lsrs	r3, r2
 80002bc:	2200      	movs	r2, #0
 80002be:	e9c5 3200 	strd	r3, r2, [r5]
 80002c2:	e8bd 87f0 	ldmia.w	sp!, {r4, r5, r6, r7, r8, r9, sl, pc}
 80002c6:	428b      	cmp	r3, r1
 80002c8:	d905      	bls.n	80002d6 <__udivmoddi4+0xba>
 80002ca:	b10d      	cbz	r5, 80002d0 <__udivmoddi4+0xb4>
 80002cc:	e9c5 0100 	strd	r0, r1, [r5]
 80002d0:	2100      	movs	r1, #0
 80002d2:	4608      	mov	r0, r1
 80002d4:	e7f5      	b.n	80002c2 <__udivmoddi4+0xa6>
 80002d6:	fab3 f183 	clz	r1, r3
 80002da:	2900      	cmp	r1, #0
 80002dc:	d146      	bne.n	800036c <__udivmoddi4+0x150>
 80002de:	42a3      	cmp	r3, r4
 80002e0:	d302      	bcc.n	80002e8 <__udivmoddi4+0xcc>
 80002e2:	4290      	cmp	r0, r2
 80002e4:	f0c0 80f0 	bcc.w	80004c8 <__udivmoddi4+0x2ac>
 80002e8:	1a86      	subs	r6, r0, r2
 80002ea:	eb64 0303 	sbc.w	r3, r4, r3
 80002ee:	2001      	movs	r0, #1
 80002f0:	2d00      	cmp	r5, #0
 80002f2:	d0e6      	beq.n	80002c2 <__udivmoddi4+0xa6>
 80002f4:	e9c5 6300 	strd	r6, r3, [r5]
 80002f8:	e7e3      	b.n	80002c2 <__udivmoddi4+0xa6>
 80002fa:	2a00      	cmp	r2, #0
 80002fc:	f040 8090 	bne.w	8000420 <__udivmoddi4+0x204>
 8000300:	eba1 040c 	sub.w	r4, r1, ip
 8000304:	ea4f 481c 	mov.w	r8, ip, lsr #16
 8000308:	fa1f f78c 	uxth.w	r7, ip
 800030c:	2101      	movs	r1, #1
 800030e:	fbb4 f6f8 	udiv	r6, r4, r8
 8000312:	ea4f 431e 	mov.w	r3, lr, lsr #16
 8000316:	fb08 4416 	mls	r4, r8, r6, r4
 800031a:	ea43 4304 	orr.w	r3, r3, r4, lsl #16
 800031e:	fb07 f006 	mul.w	r0, r7, r6
 8000322:	4298      	cmp	r0, r3
 8000324:	d908      	bls.n	8000338 <__udivmoddi4+0x11c>
 8000326:	eb1c 0303 	adds.w	r3, ip, r3
 800032a:	f106 34ff 	add.w	r4, r6, #4294967295
 800032e:	d202      	bcs.n	8000336 <__udivmoddi4+0x11a>
 8000330:	4298      	cmp	r0, r3
 8000332:	f200 80cd 	bhi.w	80004d0 <__udivmoddi4+0x2b4>
 8000336:	4626      	mov	r6, r4
 8000338:	1a1c      	subs	r4, r3, r0
 800033a:	fa1f f38e 	uxth.w	r3, lr
 800033e:	fbb4 f0f8 	udiv	r0, r4, r8
 8000342:	fb08 4410 	mls	r4, r8, r0, r4
 8000346:	ea43 4304 	orr.w	r3, r3, r4, lsl #16
 800034a:	fb00 f707 	mul.w	r7, r0, r7
 800034e:	429f      	cmp	r7, r3
 8000350:	d908      	bls.n	8000364 <__udivmoddi4+0x148>
 8000352:	eb1c 0303 	adds.w	r3, ip, r3
 8000356:	f100 34ff 	add.w	r4, r0, #4294967295
 800035a:	d202      	bcs.n	8000362 <__udivmoddi4+0x146>
 800035c:	429f      	cmp	r7, r3
 800035e:	f200 80b0 	bhi.w	80004c2 <__udivmoddi4+0x2a6>
 8000362:	4620      	mov	r0, r4
 8000364:	1bdb      	subs	r3, r3, r7
 8000366:	ea40 4006 	orr.w	r0, r0, r6, lsl #16
 800036a:	e7a5      	b.n	80002b8 <__udivmoddi4+0x9c>
 800036c:	f1c1 0620 	rsb	r6, r1, #32
 8000370:	408b      	lsls	r3, r1
 8000372:	fa22 f706 	lsr.w	r7, r2, r6
 8000376:	431f      	orrs	r7, r3
 8000378:	fa20 fc06 	lsr.w	ip, r0, r6
 800037c:	fa04 f301 	lsl.w	r3, r4, r1
 8000380:	ea43 030c 	orr.w	r3, r3, ip
 8000384:	40f4      	lsrs	r4, r6
 8000386:	fa00 f801 	lsl.w	r8, r0, r1
 800038a:	0c38      	lsrs	r0, r7, #16
 800038c:	ea4f 4913 	mov.w	r9, r3, lsr #16
 8000390:	fbb4 fef0 	udiv	lr, r4, r0
 8000394:	fa1f fc87 	uxth.w	ip, r7
 8000398:	fb00 441e 	mls	r4, r0, lr, r4
 800039c:	ea49 4404 	orr.w	r4, r9, r4, lsl #16
 80003a0:	fb0e f90c 	mul.w	r9, lr, ip
 80003a4:	45a1      	cmp	r9, r4
 80003a6:	fa02 f201 	lsl.w	r2, r2, r1
 80003aa:	d90a      	bls.n	80003c2 <__udivmoddi4+0x1a6>
 80003ac:	193c      	adds	r4, r7, r4
 80003ae:	f10e 3aff 	add.w	sl, lr, #4294967295
 80003b2:	f080 8084 	bcs.w	80004be <__udivmoddi4+0x2a2>
 80003b6:	45a1      	cmp	r9, r4
 80003b8:	f240 8081 	bls.w	80004be <__udivmoddi4+0x2a2>
 80003bc:	f1ae 0e02 	sub.w	lr, lr, #2
 80003c0:	443c      	add	r4, r7
 80003c2:	eba4 0409 	sub.w	r4, r4, r9
 80003c6:	fa1f f983 	uxth.w	r9, r3
 80003ca:	fbb4 f3f0 	udiv	r3, r4, r0
 80003ce:	fb00 4413 	mls	r4, r0, r3, r4
 80003d2:	ea49 4404 	orr.w	r4, r9, r4, lsl #16
 80003d6:	fb03 fc0c 	mul.w	ip, r3, ip
 80003da:	45a4      	cmp	ip, r4
 80003dc:	d907      	bls.n	80003ee <__udivmoddi4+0x1d2>
 80003de:	193c      	adds	r4, r7, r4
 80003e0:	f103 30ff 	add.w	r0, r3, #4294967295
 80003e4:	d267      	bcs.n	80004b6 <__udivmoddi4+0x29a>
 80003e6:	45a4      	cmp	ip, r4
 80003e8:	d965      	bls.n	80004b6 <__udivmoddi4+0x29a>
 80003ea:	3b02      	subs	r3, #2
 80003ec:	443c      	add	r4, r7
 80003ee:	ea43 400e 	orr.w	r0, r3, lr, lsl #16
 80003f2:	fba0 9302 	umull	r9, r3, r0, r2
 80003f6:	eba4 040c 	sub.w	r4, r4, ip
 80003fa:	429c      	cmp	r4, r3
 80003fc:	46ce      	mov	lr, r9
 80003fe:	469c      	mov	ip, r3
 8000400:	d351      	bcc.n	80004a6 <__udivmoddi4+0x28a>
 8000402:	d04e      	beq.n	80004a2 <__udivmoddi4+0x286>
 8000404:	b155      	cbz	r5, 800041c <__udivmoddi4+0x200>
 8000406:	ebb8 030e 	subs.w	r3, r8, lr
 800040a:	eb64 040c 	sbc.w	r4, r4, ip
 800040e:	fa04 f606 	lsl.w	r6, r4, r6
 8000412:	40cb      	lsrs	r3, r1
 8000414:	431e      	orrs	r6, r3
 8000416:	40cc      	lsrs	r4, r1
 8000418:	e9c5 6400 	strd	r6, r4, [r5]
 800041c:	2100      	movs	r1, #0
 800041e:	e750      	b.n	80002c2 <__udivmoddi4+0xa6>
 8000420:	f1c2 0320 	rsb	r3, r2, #32
 8000424:	fa20 f103 	lsr.w	r1, r0, r3
 8000428:	fa0c fc02 	lsl.w	ip, ip, r2
 800042c:	fa24 f303 	lsr.w	r3, r4, r3
 8000430:	4094      	lsls	r4, r2
 8000432:	430c      	orrs	r4, r1
 8000434:	ea4f 481c 	mov.w	r8, ip, lsr #16
 8000438:	fa00 fe02 	lsl.w	lr, r0, r2
 800043c:	fa1f f78c 	uxth.w	r7, ip
 8000440:	fbb3 f0f8 	udiv	r0, r3, r8
 8000444:	fb08 3110 	mls	r1, r8, r0, r3
 8000448:	0c23      	lsrs	r3, r4, #16
 800044a:	ea43 4301 	orr.w	r3, r3, r1, lsl #16
 800044e:	fb00 f107 	mul.w	r1, r0, r7
 8000452:	4299      	cmp	r1, r3
 8000454:	d908      	bls.n	8000468 <__udivmoddi4+0x24c>
 8000456:	eb1c 0303 	adds.w	r3, ip, r3
 800045a:	f100 36ff 	add.w	r6, r0, #4294967295
 800045e:	d22c      	bcs.n	80004ba <__udivmoddi4+0x29e>
 8000460:	4299      	cmp	r1, r3
 8000462:	d92a      	bls.n	80004ba <__udivmoddi4+0x29e>
 8000464:	3802      	subs	r0, #2
 8000466:	4463      	add	r3, ip
 8000468:	1a5b      	subs	r3, r3, r1
 800046a:	b2a4      	uxth	r4, r4
 800046c:	fbb3 f1f8 	udiv	r1, r3, r8
 8000470:	fb08 3311 	mls	r3, r8, r1, r3
 8000474:	ea44 4403 	orr.w	r4, r4, r3, lsl #16
 8000478:	fb01 f307 	mul.w	r3, r1, r7
 800047c:	42a3      	cmp	r3, r4
 800047e:	d908      	bls.n	8000492 <__udivmoddi4+0x276>
 8000480:	eb1c 0404 	adds.w	r4, ip, r4
 8000484:	f101 36ff 	add.w	r6, r1, #4294967295
 8000488:	d213      	bcs.n	80004b2 <__udivmoddi4+0x296>
 800048a:	42a3      	cmp	r3, r4
 800048c:	d911      	bls.n	80004b2 <__udivmoddi4+0x296>
 800048e:	3902      	subs	r1, #2
 8000490:	4464      	add	r4, ip
 8000492:	1ae4      	subs	r4, r4, r3
 8000494:	ea41 4100 	orr.w	r1, r1, r0, lsl #16
 8000498:	e739      	b.n	800030e <__udivmoddi4+0xf2>
 800049a:	4604      	mov	r4, r0
 800049c:	e6f0      	b.n	8000280 <__udivmoddi4+0x64>
 800049e:	4608      	mov	r0, r1
 80004a0:	e706      	b.n	80002b0 <__udivmoddi4+0x94>
 80004a2:	45c8      	cmp	r8, r9
 80004a4:	d2ae      	bcs.n	8000404 <__udivmoddi4+0x1e8>
 80004a6:	ebb9 0e02 	subs.w	lr, r9, r2
 80004aa:	eb63 0c07 	sbc.w	ip, r3, r7
 80004ae:	3801      	subs	r0, #1
 80004b0:	e7a8      	b.n	8000404 <__udivmoddi4+0x1e8>
 80004b2:	4631      	mov	r1, r6
 80004b4:	e7ed      	b.n	8000492 <__udivmoddi4+0x276>
 80004b6:	4603      	mov	r3, r0
 80004b8:	e799      	b.n	80003ee <__udivmoddi4+0x1d2>
 80004ba:	4630      	mov	r0, r6
 80004bc:	e7d4      	b.n	8000468 <__udivmoddi4+0x24c>
 80004be:	46d6      	mov	lr, sl
 80004c0:	e77f      	b.n	80003c2 <__udivmoddi4+0x1a6>
 80004c2:	4463      	add	r3, ip
 80004c4:	3802      	subs	r0, #2
 80004c6:	e74d      	b.n	8000364 <__udivmoddi4+0x148>
 80004c8:	4606      	mov	r6, r0
 80004ca:	4623      	mov	r3, r4
 80004cc:	4608      	mov	r0, r1
 80004ce:	e70f      	b.n	80002f0 <__udivmoddi4+0xd4>
 80004d0:	3e02      	subs	r6, #2
 80004d2:	4463      	add	r3, ip
 80004d4:	e730      	b.n	8000338 <__udivmoddi4+0x11c>
 80004d6:	bf00      	nop

080004d8 <__aeabi_idiv0>:
 80004d8:	4770      	bx	lr
 80004da:	bf00      	nop

080004dc <main>:
/**
  * @brief  The application entry point.
  * @retval int
  */
int main(void)
{
 80004dc:	b580      	push	{r7, lr}
 80004de:	b086      	sub	sp, #24
 80004e0:	af00      	add	r7, sp, #0
  /* USER CODE END 1 */

  /* MCU Configuration--------------------------------------------------------*/

  /* Reset of all peripherals, Initializes the Flash interface and the Systick. */
  HAL_Init();
 80004e2:	f000 fc6d 	bl	8000dc0 <HAL_Init>

  /* USER CODE BEGIN Init */
const uint16_t Led[] = {LD1_Pin , LD2_Pin , LD3_Pin};
 80004e6:	4a24      	ldr	r2, [pc, #144]	@ (8000578 <main+0x9c>)
 80004e8:	f107 0310 	add.w	r3, r7, #16
 80004ec:	e892 0003 	ldmia.w	r2, {r0, r1}
 80004f0:	6018      	str	r0, [r3, #0]
 80004f2:	3304      	adds	r3, #4
 80004f4:	8019      	strh	r1, [r3, #0]
delay_t myDelay ;
delayInit(&myDelay, 200);
 80004f6:	1d3b      	adds	r3, r7, #4
 80004f8:	21c8      	movs	r1, #200	@ 0xc8
 80004fa:	4618      	mov	r0, r3
 80004fc:	f000 fc22 	bl	8000d44 <delayInit>
  /* USER CODE END Init */

  /* Configure the system clock */
  SystemClock_Config();
 8000500:	f000 f83c 	bl	800057c <SystemClock_Config>
  /* USER CODE BEGIN SysInit */

  /* USER CODE END SysInit */

  /* Initialize all configured peripherals */
  MX_GPIO_Init();
 8000504:	f000 fb4c 	bl	8000ba0 <MX_GPIO_Init>
  MX_ETH_Init();
 8000508:	f000 f8a2 	bl	8000650 <MX_ETH_Init>
  MX_USART3_UART_Init();
 800050c:	f000 f8ee 	bl	80006ec <MX_USART3_UART_Init>
  MX_USB_OTG_FS_PCD_Init();
 8000510:	f000 f916 	bl	8000740 <MX_USB_OTG_FS_PCD_Init>
  /* Infinite loop */
  /* USER CODE BEGIN WHILE */
  while (1)
  {
    /* USER CODE END WHILE */
	  for (uint8_t i = 0 ; i < 3 ; i++ )
 8000514:	2300      	movs	r3, #0
 8000516:	75fb      	strb	r3, [r7, #23]
 8000518:	e02a      	b.n	8000570 <main+0x94>
	  {
	  writeLedOn_GPIO(Led[i])	;
 800051a:	7dfb      	ldrb	r3, [r7, #23]
 800051c:	005b      	lsls	r3, r3, #1
 800051e:	3318      	adds	r3, #24
 8000520:	443b      	add	r3, r7
 8000522:	f833 3c08 	ldrh.w	r3, [r3, #-8]
 8000526:	4618      	mov	r0, r3
 8000528:	f000 fbe8 	bl	8000cfc <writeLedOn_GPIO>
	  while (!delayRead(&myDelay)) {}
 800052c:	bf00      	nop
 800052e:	1d3b      	adds	r3, r7, #4
 8000530:	4618      	mov	r0, r3
 8000532:	f000 fc1b 	bl	8000d6c <delayRead>
 8000536:	4603      	mov	r3, r0
 8000538:	f083 0301 	eor.w	r3, r3, #1
 800053c:	b2db      	uxtb	r3, r3
 800053e:	2b00      	cmp	r3, #0
 8000540:	d1f5      	bne.n	800052e <main+0x52>
	  writeLedOff_GPIO(Led[i]);
 8000542:	7dfb      	ldrb	r3, [r7, #23]
 8000544:	005b      	lsls	r3, r3, #1
 8000546:	3318      	adds	r3, #24
 8000548:	443b      	add	r3, r7
 800054a:	f833 3c08 	ldrh.w	r3, [r3, #-8]
 800054e:	4618      	mov	r0, r3
 8000550:	f000 fbe6 	bl	8000d20 <writeLedOff_GPIO>
	  while (!delayRead(&myDelay)) {}
 8000554:	bf00      	nop
 8000556:	1d3b      	adds	r3, r7, #4
 8000558:	4618      	mov	r0, r3
 800055a:	f000 fc07 	bl	8000d6c <delayRead>
 800055e:	4603      	mov	r3, r0
 8000560:	f083 0301 	eor.w	r3, r3, #1
 8000564:	b2db      	uxtb	r3, r3
 8000566:	2b00      	cmp	r3, #0
 8000568:	d1f5      	bne.n	8000556 <main+0x7a>
	  for (uint8_t i = 0 ; i < 3 ; i++ )
 800056a:	7dfb      	ldrb	r3, [r7, #23]
 800056c:	3301      	adds	r3, #1
 800056e:	75fb      	strb	r3, [r7, #23]
 8000570:	7dfb      	ldrb	r3, [r7, #23]
 8000572:	2b02      	cmp	r3, #2
 8000574:	d9d1      	bls.n	800051a <main+0x3e>
 8000576:	e7cd      	b.n	8000514 <main+0x38>
 8000578:	08003228 	.word	0x08003228

0800057c <SystemClock_Config>:
/**
  * @brief System Clock Configuration
  * @retval None
  */
void SystemClock_Config(void)
{
 800057c:	b580      	push	{r7, lr}
 800057e:	b094      	sub	sp, #80	@ 0x50
 8000580:	af00      	add	r7, sp, #0
  RCC_OscInitTypeDef RCC_OscInitStruct = {0};
 8000582:	f107 0320 	add.w	r3, r7, #32
 8000586:	2230      	movs	r2, #48	@ 0x30
 8000588:	2100      	movs	r1, #0
 800058a:	4618      	mov	r0, r3
 800058c:	f002 fe13 	bl	80031b6 <memset>
  RCC_ClkInitTypeDef RCC_ClkInitStruct = {0};
 8000590:	f107 030c 	add.w	r3, r7, #12
 8000594:	2200      	movs	r2, #0
 8000596:	601a      	str	r2, [r3, #0]
 8000598:	605a      	str	r2, [r3, #4]
 800059a:	609a      	str	r2, [r3, #8]
 800059c:	60da      	str	r2, [r3, #12]
 800059e:	611a      	str	r2, [r3, #16]

  /** Configure the main internal regulator output voltage
  */
  __HAL_RCC_PWR_CLK_ENABLE();
 80005a0:	2300      	movs	r3, #0
 80005a2:	60bb      	str	r3, [r7, #8]
 80005a4:	4b28      	ldr	r3, [pc, #160]	@ (8000648 <SystemClock_Config+0xcc>)
 80005a6:	6c1b      	ldr	r3, [r3, #64]	@ 0x40
 80005a8:	4a27      	ldr	r2, [pc, #156]	@ (8000648 <SystemClock_Config+0xcc>)
 80005aa:	f043 5380 	orr.w	r3, r3, #268435456	@ 0x10000000
 80005ae:	6413      	str	r3, [r2, #64]	@ 0x40
 80005b0:	4b25      	ldr	r3, [pc, #148]	@ (8000648 <SystemClock_Config+0xcc>)
 80005b2:	6c1b      	ldr	r3, [r3, #64]	@ 0x40
 80005b4:	f003 5380 	and.w	r3, r3, #268435456	@ 0x10000000
 80005b8:	60bb      	str	r3, [r7, #8]
 80005ba:	68bb      	ldr	r3, [r7, #8]
  __HAL_PWR_VOLTAGESCALING_CONFIG(PWR_REGULATOR_VOLTAGE_SCALE1);
 80005bc:	2300      	movs	r3, #0
 80005be:	607b      	str	r3, [r7, #4]
 80005c0:	4b22      	ldr	r3, [pc, #136]	@ (800064c <SystemClock_Config+0xd0>)
 80005c2:	681b      	ldr	r3, [r3, #0]
 80005c4:	4a21      	ldr	r2, [pc, #132]	@ (800064c <SystemClock_Config+0xd0>)
 80005c6:	f443 4340 	orr.w	r3, r3, #49152	@ 0xc000
 80005ca:	6013      	str	r3, [r2, #0]
 80005cc:	4b1f      	ldr	r3, [pc, #124]	@ (800064c <SystemClock_Config+0xd0>)
 80005ce:	681b      	ldr	r3, [r3, #0]
 80005d0:	f403 4340 	and.w	r3, r3, #49152	@ 0xc000
 80005d4:	607b      	str	r3, [r7, #4]
 80005d6:	687b      	ldr	r3, [r7, #4]

  /** Initializes the RCC Oscillators according to the specified parameters
  * in the RCC_OscInitTypeDef structure.
  */
  RCC_OscInitStruct.OscillatorType = RCC_OSCILLATORTYPE_HSE;
 80005d8:	2301      	movs	r3, #1
 80005da:	623b      	str	r3, [r7, #32]
  RCC_OscInitStruct.HSEState = RCC_HSE_BYPASS;
 80005dc:	f44f 23a0 	mov.w	r3, #327680	@ 0x50000
 80005e0:	627b      	str	r3, [r7, #36]	@ 0x24
  RCC_OscInitStruct.PLL.PLLState = RCC_PLL_ON;
 80005e2:	2302      	movs	r3, #2
 80005e4:	63bb      	str	r3, [r7, #56]	@ 0x38
  RCC_OscInitStruct.PLL.PLLSource = RCC_PLLSOURCE_HSE;
 80005e6:	f44f 0380 	mov.w	r3, #4194304	@ 0x400000
 80005ea:	63fb      	str	r3, [r7, #60]	@ 0x3c
  RCC_OscInitStruct.PLL.PLLM = 4;
 80005ec:	2304      	movs	r3, #4
 80005ee:	643b      	str	r3, [r7, #64]	@ 0x40
  RCC_OscInitStruct.PLL.PLLN = 168;
 80005f0:	23a8      	movs	r3, #168	@ 0xa8
 80005f2:	647b      	str	r3, [r7, #68]	@ 0x44
  RCC_OscInitStruct.PLL.PLLP = RCC_PLLP_DIV2;
 80005f4:	2302      	movs	r3, #2
 80005f6:	64bb      	str	r3, [r7, #72]	@ 0x48
  RCC_OscInitStruct.PLL.PLLQ = 7;
 80005f8:	2307      	movs	r3, #7
 80005fa:	64fb      	str	r3, [r7, #76]	@ 0x4c
  if (HAL_RCC_OscConfig(&RCC_OscInitStruct) != HAL_OK)
 80005fc:	f107 0320 	add.w	r3, r7, #32
 8000600:	4618      	mov	r0, r3
 8000602:	f001 fb7d 	bl	8001d00 <HAL_RCC_OscConfig>
 8000606:	4603      	mov	r3, r0
 8000608:	2b00      	cmp	r3, #0
 800060a:	d001      	beq.n	8000610 <SystemClock_Config+0x94>
  {
    Error_Handler();
 800060c:	f000 f8c6 	bl	800079c <Error_Handler>
  }

  /** Initializes the CPU, AHB and APB buses clocks
  */
  RCC_ClkInitStruct.ClockType = RCC_CLOCKTYPE_HCLK|RCC_CLOCKTYPE_SYSCLK
 8000610:	230f      	movs	r3, #15
 8000612:	60fb      	str	r3, [r7, #12]
                              |RCC_CLOCKTYPE_PCLK1|RCC_CLOCKTYPE_PCLK2;
  RCC_ClkInitStruct.SYSCLKSource = RCC_SYSCLKSOURCE_PLLCLK;
 8000614:	2302      	movs	r3, #2
 8000616:	613b      	str	r3, [r7, #16]
  RCC_ClkInitStruct.AHBCLKDivider = RCC_SYSCLK_DIV1;
 8000618:	2300      	movs	r3, #0
 800061a:	617b      	str	r3, [r7, #20]
  RCC_ClkInitStruct.APB1CLKDivider = RCC_HCLK_DIV4;
 800061c:	f44f 53a0 	mov.w	r3, #5120	@ 0x1400
 8000620:	61bb      	str	r3, [r7, #24]
  RCC_ClkInitStruct.APB2CLKDivider = RCC_HCLK_DIV2;
 8000622:	f44f 5380 	mov.w	r3, #4096	@ 0x1000
 8000626:	61fb      	str	r3, [r7, #28]

  if (HAL_RCC_ClockConfig(&RCC_ClkInitStruct, FLASH_LATENCY_5) != HAL_OK)
 8000628:	f107 030c 	add.w	r3, r7, #12
 800062c:	2105      	movs	r1, #5
 800062e:	4618      	mov	r0, r3
 8000630:	f001 fdde 	bl	80021f0 <HAL_RCC_ClockConfig>
 8000634:	4603      	mov	r3, r0
 8000636:	2b00      	cmp	r3, #0
 8000638:	d001      	beq.n	800063e <SystemClock_Config+0xc2>
  {
    Error_Handler();
 800063a:	f000 f8af 	bl	800079c <Error_Handler>
  }
}
 800063e:	bf00      	nop
 8000640:	3750      	adds	r7, #80	@ 0x50
 8000642:	46bd      	mov	sp, r7
 8000644:	bd80      	pop	{r7, pc}
 8000646:	bf00      	nop
 8000648:	40023800 	.word	0x40023800
 800064c:	40007000 	.word	0x40007000

08000650 <MX_ETH_Init>:
  * @brief ETH Initialization Function
  * @param None
  * @retval None
  */
static void MX_ETH_Init(void)
{
 8000650:	b580      	push	{r7, lr}
 8000652:	af00      	add	r7, sp, #0
   static uint8_t MACAddr[6];

  /* USER CODE BEGIN ETH_Init 1 */

  /* USER CODE END ETH_Init 1 */
  heth.Instance = ETH;
 8000654:	4b1f      	ldr	r3, [pc, #124]	@ (80006d4 <MX_ETH_Init+0x84>)
 8000656:	4a20      	ldr	r2, [pc, #128]	@ (80006d8 <MX_ETH_Init+0x88>)
 8000658:	601a      	str	r2, [r3, #0]
  MACAddr[0] = 0x00;
 800065a:	4b20      	ldr	r3, [pc, #128]	@ (80006dc <MX_ETH_Init+0x8c>)
 800065c:	2200      	movs	r2, #0
 800065e:	701a      	strb	r2, [r3, #0]
  MACAddr[1] = 0x80;
 8000660:	4b1e      	ldr	r3, [pc, #120]	@ (80006dc <MX_ETH_Init+0x8c>)
 8000662:	2280      	movs	r2, #128	@ 0x80
 8000664:	705a      	strb	r2, [r3, #1]
  MACAddr[2] = 0xE1;
 8000666:	4b1d      	ldr	r3, [pc, #116]	@ (80006dc <MX_ETH_Init+0x8c>)
 8000668:	22e1      	movs	r2, #225	@ 0xe1
 800066a:	709a      	strb	r2, [r3, #2]
  MACAddr[3] = 0x00;
 800066c:	4b1b      	ldr	r3, [pc, #108]	@ (80006dc <MX_ETH_Init+0x8c>)
 800066e:	2200      	movs	r2, #0
 8000670:	70da      	strb	r2, [r3, #3]
  MACAddr[4] = 0x00;
 8000672:	4b1a      	ldr	r3, [pc, #104]	@ (80006dc <MX_ETH_Init+0x8c>)
 8000674:	2200      	movs	r2, #0
 8000676:	711a      	strb	r2, [r3, #4]
  MACAddr[5] = 0x00;
 8000678:	4b18      	ldr	r3, [pc, #96]	@ (80006dc <MX_ETH_Init+0x8c>)
 800067a:	2200      	movs	r2, #0
 800067c:	715a      	strb	r2, [r3, #5]
  heth.Init.MACAddr = &MACAddr[0];
 800067e:	4b15      	ldr	r3, [pc, #84]	@ (80006d4 <MX_ETH_Init+0x84>)
 8000680:	4a16      	ldr	r2, [pc, #88]	@ (80006dc <MX_ETH_Init+0x8c>)
 8000682:	605a      	str	r2, [r3, #4]
  heth.Init.MediaInterface = HAL_ETH_RMII_MODE;
 8000684:	4b13      	ldr	r3, [pc, #76]	@ (80006d4 <MX_ETH_Init+0x84>)
 8000686:	f44f 0200 	mov.w	r2, #8388608	@ 0x800000
 800068a:	609a      	str	r2, [r3, #8]
  heth.Init.TxDesc = DMATxDscrTab;
 800068c:	4b11      	ldr	r3, [pc, #68]	@ (80006d4 <MX_ETH_Init+0x84>)
 800068e:	4a14      	ldr	r2, [pc, #80]	@ (80006e0 <MX_ETH_Init+0x90>)
 8000690:	60da      	str	r2, [r3, #12]
  heth.Init.RxDesc = DMARxDscrTab;
 8000692:	4b10      	ldr	r3, [pc, #64]	@ (80006d4 <MX_ETH_Init+0x84>)
 8000694:	4a13      	ldr	r2, [pc, #76]	@ (80006e4 <MX_ETH_Init+0x94>)
 8000696:	611a      	str	r2, [r3, #16]
  heth.Init.RxBuffLen = 1524;
 8000698:	4b0e      	ldr	r3, [pc, #56]	@ (80006d4 <MX_ETH_Init+0x84>)
 800069a:	f240 52f4 	movw	r2, #1524	@ 0x5f4
 800069e:	615a      	str	r2, [r3, #20]

  /* USER CODE BEGIN MACADDRESS */

  /* USER CODE END MACADDRESS */

  if (HAL_ETH_Init(&heth) != HAL_OK)
 80006a0:	480c      	ldr	r0, [pc, #48]	@ (80006d4 <MX_ETH_Init+0x84>)
 80006a2:	f000 fd09 	bl	80010b8 <HAL_ETH_Init>
 80006a6:	4603      	mov	r3, r0
 80006a8:	2b00      	cmp	r3, #0
 80006aa:	d001      	beq.n	80006b0 <MX_ETH_Init+0x60>
  {
    Error_Handler();
 80006ac:	f000 f876 	bl	800079c <Error_Handler>
  }

  memset(&TxConfig, 0 , sizeof(ETH_TxPacketConfig));
 80006b0:	2238      	movs	r2, #56	@ 0x38
 80006b2:	2100      	movs	r1, #0
 80006b4:	480c      	ldr	r0, [pc, #48]	@ (80006e8 <MX_ETH_Init+0x98>)
 80006b6:	f002 fd7e 	bl	80031b6 <memset>
  TxConfig.Attributes = ETH_TX_PACKETS_FEATURES_CSUM | ETH_TX_PACKETS_FEATURES_CRCPAD;
 80006ba:	4b0b      	ldr	r3, [pc, #44]	@ (80006e8 <MX_ETH_Init+0x98>)
 80006bc:	2221      	movs	r2, #33	@ 0x21
 80006be:	601a      	str	r2, [r3, #0]
  TxConfig.ChecksumCtrl = ETH_CHECKSUM_IPHDR_PAYLOAD_INSERT_PHDR_CALC;
 80006c0:	4b09      	ldr	r3, [pc, #36]	@ (80006e8 <MX_ETH_Init+0x98>)
 80006c2:	f44f 0240 	mov.w	r2, #12582912	@ 0xc00000
 80006c6:	615a      	str	r2, [r3, #20]
  TxConfig.CRCPadCtrl = ETH_CRC_PAD_INSERT;
 80006c8:	4b07      	ldr	r3, [pc, #28]	@ (80006e8 <MX_ETH_Init+0x98>)
 80006ca:	2200      	movs	r2, #0
 80006cc:	611a      	str	r2, [r3, #16]
  /* USER CODE BEGIN ETH_Init 2 */

  /* USER CODE END ETH_Init 2 */

}
 80006ce:	bf00      	nop
 80006d0:	bd80      	pop	{r7, pc}
 80006d2:	bf00      	nop
 80006d4:	200001a0 	.word	0x200001a0
 80006d8:	40028000 	.word	0x40028000
 80006dc:	2000077c 	.word	0x2000077c
 80006e0:	20000100 	.word	0x20000100
 80006e4:	20000060 	.word	0x20000060
 80006e8:	20000028 	.word	0x20000028

080006ec <MX_USART3_UART_Init>:
  * @brief USART3 Initialization Function
  * @param None
  * @retval None
  */
static void MX_USART3_UART_Init(void)
{
 80006ec:	b580      	push	{r7, lr}
 80006ee:	af00      	add	r7, sp, #0
  /* USER CODE END USART3_Init 0 */

  /* USER CODE BEGIN USART3_Init 1 */

  /* USER CODE END USART3_Init 1 */
  huart3.Instance = USART3;
 80006f0:	4b11      	ldr	r3, [pc, #68]	@ (8000738 <MX_USART3_UART_Init+0x4c>)
 80006f2:	4a12      	ldr	r2, [pc, #72]	@ (800073c <MX_USART3_UART_Init+0x50>)
 80006f4:	601a      	str	r2, [r3, #0]
  huart3.Init.BaudRate = 115200;
 80006f6:	4b10      	ldr	r3, [pc, #64]	@ (8000738 <MX_USART3_UART_Init+0x4c>)
 80006f8:	f44f 32e1 	mov.w	r2, #115200	@ 0x1c200
 80006fc:	605a      	str	r2, [r3, #4]
  huart3.Init.WordLength = UART_WORDLENGTH_8B;
 80006fe:	4b0e      	ldr	r3, [pc, #56]	@ (8000738 <MX_USART3_UART_Init+0x4c>)
 8000700:	2200      	movs	r2, #0
 8000702:	609a      	str	r2, [r3, #8]
  huart3.Init.StopBits = UART_STOPBITS_1;
 8000704:	4b0c      	ldr	r3, [pc, #48]	@ (8000738 <MX_USART3_UART_Init+0x4c>)
 8000706:	2200      	movs	r2, #0
 8000708:	60da      	str	r2, [r3, #12]
  huart3.Init.Parity = UART_PARITY_NONE;
 800070a:	4b0b      	ldr	r3, [pc, #44]	@ (8000738 <MX_USART3_UART_Init+0x4c>)
 800070c:	2200      	movs	r2, #0
 800070e:	611a      	str	r2, [r3, #16]
  huart3.Init.Mode = UART_MODE_TX_RX;
 8000710:	4b09      	ldr	r3, [pc, #36]	@ (8000738 <MX_USART3_UART_Init+0x4c>)
 8000712:	220c      	movs	r2, #12
 8000714:	615a      	str	r2, [r3, #20]
  huart3.Init.HwFlowCtl = UART_HWCONTROL_NONE;
 8000716:	4b08      	ldr	r3, [pc, #32]	@ (8000738 <MX_USART3_UART_Init+0x4c>)
 8000718:	2200      	movs	r2, #0
 800071a:	619a      	str	r2, [r3, #24]
  huart3.Init.OverSampling = UART_OVERSAMPLING_16;
 800071c:	4b06      	ldr	r3, [pc, #24]	@ (8000738 <MX_USART3_UART_Init+0x4c>)
 800071e:	2200      	movs	r2, #0
 8000720:	61da      	str	r2, [r3, #28]
  if (HAL_UART_Init(&huart3) != HAL_OK)
 8000722:	4805      	ldr	r0, [pc, #20]	@ (8000738 <MX_USART3_UART_Init+0x4c>)
 8000724:	f001 ff84 	bl	8002630 <HAL_UART_Init>
 8000728:	4603      	mov	r3, r0
 800072a:	2b00      	cmp	r3, #0
 800072c:	d001      	beq.n	8000732 <MX_USART3_UART_Init+0x46>
  {
    Error_Handler();
 800072e:	f000 f835 	bl	800079c <Error_Handler>
  }
  /* USER CODE BEGIN USART3_Init 2 */

  /* USER CODE END USART3_Init 2 */

}
 8000732:	bf00      	nop
 8000734:	bd80      	pop	{r7, pc}
 8000736:	bf00      	nop
 8000738:	20000250 	.word	0x20000250
 800073c:	40004800 	.word	0x40004800

08000740 <MX_USB_OTG_FS_PCD_Init>:
  * @brief USB_OTG_FS Initialization Function
  * @param None
  * @retval None
  */
static void MX_USB_OTG_FS_PCD_Init(void)
{
 8000740:	b580      	push	{r7, lr}
 8000742:	af00      	add	r7, sp, #0
  /* USER CODE END USB_OTG_FS_Init 0 */

  /* USER CODE BEGIN USB_OTG_FS_Init 1 */

  /* USER CODE END USB_OTG_FS_Init 1 */
  hpcd_USB_OTG_FS.Instance = USB_OTG_FS;
 8000744:	4b14      	ldr	r3, [pc, #80]	@ (8000798 <MX_USB_OTG_FS_PCD_Init+0x58>)
 8000746:	f04f 42a0 	mov.w	r2, #1342177280	@ 0x50000000
 800074a:	601a      	str	r2, [r3, #0]
  hpcd_USB_OTG_FS.Init.dev_endpoints = 4;
 800074c:	4b12      	ldr	r3, [pc, #72]	@ (8000798 <MX_USB_OTG_FS_PCD_Init+0x58>)
 800074e:	2204      	movs	r2, #4
 8000750:	711a      	strb	r2, [r3, #4]
  hpcd_USB_OTG_FS.Init.speed = PCD_SPEED_FULL;
 8000752:	4b11      	ldr	r3, [pc, #68]	@ (8000798 <MX_USB_OTG_FS_PCD_Init+0x58>)
 8000754:	2202      	movs	r2, #2
 8000756:	71da      	strb	r2, [r3, #7]
  hpcd_USB_OTG_FS.Init.dma_enable = DISABLE;
 8000758:	4b0f      	ldr	r3, [pc, #60]	@ (8000798 <MX_USB_OTG_FS_PCD_Init+0x58>)
 800075a:	2200      	movs	r2, #0
 800075c:	719a      	strb	r2, [r3, #6]
  hpcd_USB_OTG_FS.Init.phy_itface = PCD_PHY_EMBEDDED;
 800075e:	4b0e      	ldr	r3, [pc, #56]	@ (8000798 <MX_USB_OTG_FS_PCD_Init+0x58>)
 8000760:	2202      	movs	r2, #2
 8000762:	725a      	strb	r2, [r3, #9]
  hpcd_USB_OTG_FS.Init.Sof_enable = ENABLE;
 8000764:	4b0c      	ldr	r3, [pc, #48]	@ (8000798 <MX_USB_OTG_FS_PCD_Init+0x58>)
 8000766:	2201      	movs	r2, #1
 8000768:	729a      	strb	r2, [r3, #10]
  hpcd_USB_OTG_FS.Init.low_power_enable = DISABLE;
 800076a:	4b0b      	ldr	r3, [pc, #44]	@ (8000798 <MX_USB_OTG_FS_PCD_Init+0x58>)
 800076c:	2200      	movs	r2, #0
 800076e:	72da      	strb	r2, [r3, #11]
  hpcd_USB_OTG_FS.Init.lpm_enable = DISABLE;
 8000770:	4b09      	ldr	r3, [pc, #36]	@ (8000798 <MX_USB_OTG_FS_PCD_Init+0x58>)
 8000772:	2200      	movs	r2, #0
 8000774:	731a      	strb	r2, [r3, #12]
  hpcd_USB_OTG_FS.Init.vbus_sensing_enable = ENABLE;
 8000776:	4b08      	ldr	r3, [pc, #32]	@ (8000798 <MX_USB_OTG_FS_PCD_Init+0x58>)
 8000778:	2201      	movs	r2, #1
 800077a:	739a      	strb	r2, [r3, #14]
  hpcd_USB_OTG_FS.Init.use_dedicated_ep1 = DISABLE;
 800077c:	4b06      	ldr	r3, [pc, #24]	@ (8000798 <MX_USB_OTG_FS_PCD_Init+0x58>)
 800077e:	2200      	movs	r2, #0
 8000780:	73da      	strb	r2, [r3, #15]
  if (HAL_PCD_Init(&hpcd_USB_OTG_FS) != HAL_OK)
 8000782:	4805      	ldr	r0, [pc, #20]	@ (8000798 <MX_USB_OTG_FS_PCD_Init+0x58>)
 8000784:	f001 f9ad 	bl	8001ae2 <HAL_PCD_Init>
 8000788:	4603      	mov	r3, r0
 800078a:	2b00      	cmp	r3, #0
 800078c:	d001      	beq.n	8000792 <MX_USB_OTG_FS_PCD_Init+0x52>
  {
    Error_Handler();
 800078e:	f000 f805 	bl	800079c <Error_Handler>
  }
  /* USER CODE BEGIN USB_OTG_FS_Init 2 */

  /* USER CODE END USB_OTG_FS_Init 2 */

}
 8000792:	bf00      	nop
 8000794:	bd80      	pop	{r7, pc}
 8000796:	bf00      	nop
 8000798:	20000298 	.word	0x20000298

0800079c <Error_Handler>:
/**
  * @brief  This function is executed in case of error occurrence.
  * @retval None
  */
void Error_Handler(void)
{
 800079c:	b480      	push	{r7}
 800079e:	af00      	add	r7, sp, #0
  \details Disables IRQ interrupts by setting special-purpose register PRIMASK.
           Can only be executed in Privileged modes.
 */
__STATIC_FORCEINLINE void __disable_irq(void)
{
  __ASM volatile ("cpsid i" : : : "memory");
 80007a0:	b672      	cpsid	i
}
 80007a2:	bf00      	nop
  /* USER CODE BEGIN Error_Handler_Debug */
  /* User can add his own implementation to report the HAL error return state */
  __disable_irq();
  while (1)
 80007a4:	bf00      	nop
 80007a6:	e7fd      	b.n	80007a4 <Error_Handler+0x8>

080007a8 <HAL_MspInit>:
/* USER CODE END 0 */
/**
  * Initializes the Global MSP.
  */
void HAL_MspInit(void)
{
 80007a8:	b480      	push	{r7}
 80007aa:	b083      	sub	sp, #12
 80007ac:	af00      	add	r7, sp, #0

  /* USER CODE BEGIN MspInit 0 */

  /* USER CODE END MspInit 0 */

  __HAL_RCC_SYSCFG_CLK_ENABLE();
 80007ae:	2300      	movs	r3, #0
 80007b0:	607b      	str	r3, [r7, #4]
 80007b2:	4b10      	ldr	r3, [pc, #64]	@ (80007f4 <HAL_MspInit+0x4c>)
 80007b4:	6c5b      	ldr	r3, [r3, #68]	@ 0x44
 80007b6:	4a0f      	ldr	r2, [pc, #60]	@ (80007f4 <HAL_MspInit+0x4c>)
 80007b8:	f443 4380 	orr.w	r3, r3, #16384	@ 0x4000
 80007bc:	6453      	str	r3, [r2, #68]	@ 0x44
 80007be:	4b0d      	ldr	r3, [pc, #52]	@ (80007f4 <HAL_MspInit+0x4c>)
 80007c0:	6c5b      	ldr	r3, [r3, #68]	@ 0x44
 80007c2:	f403 4380 	and.w	r3, r3, #16384	@ 0x4000
 80007c6:	607b      	str	r3, [r7, #4]
 80007c8:	687b      	ldr	r3, [r7, #4]
  __HAL_RCC_PWR_CLK_ENABLE();
 80007ca:	2300      	movs	r3, #0
 80007cc:	603b      	str	r3, [r7, #0]
 80007ce:	4b09      	ldr	r3, [pc, #36]	@ (80007f4 <HAL_MspInit+0x4c>)
 80007d0:	6c1b      	ldr	r3, [r3, #64]	@ 0x40
 80007d2:	4a08      	ldr	r2, [pc, #32]	@ (80007f4 <HAL_MspInit+0x4c>)
 80007d4:	f043 5380 	orr.w	r3, r3, #268435456	@ 0x10000000
 80007d8:	6413      	str	r3, [r2, #64]	@ 0x40
 80007da:	4b06      	ldr	r3, [pc, #24]	@ (80007f4 <HAL_MspInit+0x4c>)
 80007dc:	6c1b      	ldr	r3, [r3, #64]	@ 0x40
 80007de:	f003 5380 	and.w	r3, r3, #268435456	@ 0x10000000
 80007e2:	603b      	str	r3, [r7, #0]
 80007e4:	683b      	ldr	r3, [r7, #0]
  /* System interrupt init*/

  /* USER CODE BEGIN MspInit 1 */

  /* USER CODE END MspInit 1 */
}
 80007e6:	bf00      	nop
 80007e8:	370c      	adds	r7, #12
 80007ea:	46bd      	mov	sp, r7
 80007ec:	f85d 7b04 	ldr.w	r7, [sp], #4
 80007f0:	4770      	bx	lr
 80007f2:	bf00      	nop
 80007f4:	40023800 	.word	0x40023800

080007f8 <HAL_ETH_MspInit>:
* This function configures the hardware resources used in this example
* @param heth: ETH handle pointer
* @retval None
*/
void HAL_ETH_MspInit(ETH_HandleTypeDef* heth)
{
 80007f8:	b580      	push	{r7, lr}
 80007fa:	b08e      	sub	sp, #56	@ 0x38
 80007fc:	af00      	add	r7, sp, #0
 80007fe:	6078      	str	r0, [r7, #4]
  GPIO_InitTypeDef GPIO_InitStruct = {0};
 8000800:	f107 0324 	add.w	r3, r7, #36	@ 0x24
 8000804:	2200      	movs	r2, #0
 8000806:	601a      	str	r2, [r3, #0]
 8000808:	605a      	str	r2, [r3, #4]
 800080a:	609a      	str	r2, [r3, #8]
 800080c:	60da      	str	r2, [r3, #12]
 800080e:	611a      	str	r2, [r3, #16]
  if(heth->Instance==ETH)
 8000810:	687b      	ldr	r3, [r7, #4]
 8000812:	681b      	ldr	r3, [r3, #0]
 8000814:	4a55      	ldr	r2, [pc, #340]	@ (800096c <HAL_ETH_MspInit+0x174>)
 8000816:	4293      	cmp	r3, r2
 8000818:	f040 80a4 	bne.w	8000964 <HAL_ETH_MspInit+0x16c>
  {
  /* USER CODE BEGIN ETH_MspInit 0 */

  /* USER CODE END ETH_MspInit 0 */
    /* Peripheral clock enable */
    __HAL_RCC_ETH_CLK_ENABLE();
 800081c:	2300      	movs	r3, #0
 800081e:	623b      	str	r3, [r7, #32]
 8000820:	4b53      	ldr	r3, [pc, #332]	@ (8000970 <HAL_ETH_MspInit+0x178>)
 8000822:	6b1b      	ldr	r3, [r3, #48]	@ 0x30
 8000824:	4a52      	ldr	r2, [pc, #328]	@ (8000970 <HAL_ETH_MspInit+0x178>)
 8000826:	f043 7300 	orr.w	r3, r3, #33554432	@ 0x2000000
 800082a:	6313      	str	r3, [r2, #48]	@ 0x30
 800082c:	4b50      	ldr	r3, [pc, #320]	@ (8000970 <HAL_ETH_MspInit+0x178>)
 800082e:	6b1b      	ldr	r3, [r3, #48]	@ 0x30
 8000830:	f003 7300 	and.w	r3, r3, #33554432	@ 0x2000000
 8000834:	623b      	str	r3, [r7, #32]
 8000836:	6a3b      	ldr	r3, [r7, #32]
 8000838:	2300      	movs	r3, #0
 800083a:	61fb      	str	r3, [r7, #28]
 800083c:	4b4c      	ldr	r3, [pc, #304]	@ (8000970 <HAL_ETH_MspInit+0x178>)
 800083e:	6b1b      	ldr	r3, [r3, #48]	@ 0x30
 8000840:	4a4b      	ldr	r2, [pc, #300]	@ (8000970 <HAL_ETH_MspInit+0x178>)
 8000842:	f043 6380 	orr.w	r3, r3, #67108864	@ 0x4000000
 8000846:	6313      	str	r3, [r2, #48]	@ 0x30
 8000848:	4b49      	ldr	r3, [pc, #292]	@ (8000970 <HAL_ETH_MspInit+0x178>)
 800084a:	6b1b      	ldr	r3, [r3, #48]	@ 0x30
 800084c:	f003 6380 	and.w	r3, r3, #67108864	@ 0x4000000
 8000850:	61fb      	str	r3, [r7, #28]
 8000852:	69fb      	ldr	r3, [r7, #28]
 8000854:	2300      	movs	r3, #0
 8000856:	61bb      	str	r3, [r7, #24]
 8000858:	4b45      	ldr	r3, [pc, #276]	@ (8000970 <HAL_ETH_MspInit+0x178>)
 800085a:	6b1b      	ldr	r3, [r3, #48]	@ 0x30
 800085c:	4a44      	ldr	r2, [pc, #272]	@ (8000970 <HAL_ETH_MspInit+0x178>)
 800085e:	f043 6300 	orr.w	r3, r3, #134217728	@ 0x8000000
 8000862:	6313      	str	r3, [r2, #48]	@ 0x30
 8000864:	4b42      	ldr	r3, [pc, #264]	@ (8000970 <HAL_ETH_MspInit+0x178>)
 8000866:	6b1b      	ldr	r3, [r3, #48]	@ 0x30
 8000868:	f003 6300 	and.w	r3, r3, #134217728	@ 0x8000000
 800086c:	61bb      	str	r3, [r7, #24]
 800086e:	69bb      	ldr	r3, [r7, #24]

    __HAL_RCC_GPIOC_CLK_ENABLE();
 8000870:	2300      	movs	r3, #0
 8000872:	617b      	str	r3, [r7, #20]
 8000874:	4b3e      	ldr	r3, [pc, #248]	@ (8000970 <HAL_ETH_MspInit+0x178>)
 8000876:	6b1b      	ldr	r3, [r3, #48]	@ 0x30
 8000878:	4a3d      	ldr	r2, [pc, #244]	@ (8000970 <HAL_ETH_MspInit+0x178>)
 800087a:	f043 0304 	orr.w	r3, r3, #4
 800087e:	6313      	str	r3, [r2, #48]	@ 0x30
 8000880:	4b3b      	ldr	r3, [pc, #236]	@ (8000970 <HAL_ETH_MspInit+0x178>)
 8000882:	6b1b      	ldr	r3, [r3, #48]	@ 0x30
 8000884:	f003 0304 	and.w	r3, r3, #4
 8000888:	617b      	str	r3, [r7, #20]
 800088a:	697b      	ldr	r3, [r7, #20]
    __HAL_RCC_GPIOA_CLK_ENABLE();
 800088c:	2300      	movs	r3, #0
 800088e:	613b      	str	r3, [r7, #16]
 8000890:	4b37      	ldr	r3, [pc, #220]	@ (8000970 <HAL_ETH_MspInit+0x178>)
 8000892:	6b1b      	ldr	r3, [r3, #48]	@ 0x30
 8000894:	4a36      	ldr	r2, [pc, #216]	@ (8000970 <HAL_ETH_MspInit+0x178>)
 8000896:	f043 0301 	orr.w	r3, r3, #1
 800089a:	6313      	str	r3, [r2, #48]	@ 0x30
 800089c:	4b34      	ldr	r3, [pc, #208]	@ (8000970 <HAL_ETH_MspInit+0x178>)
 800089e:	6b1b      	ldr	r3, [r3, #48]	@ 0x30
 80008a0:	f003 0301 	and.w	r3, r3, #1
 80008a4:	613b      	str	r3, [r7, #16]
 80008a6:	693b      	ldr	r3, [r7, #16]
    __HAL_RCC_GPIOB_CLK_ENABLE();
 80008a8:	2300      	movs	r3, #0
 80008aa:	60fb      	str	r3, [r7, #12]
 80008ac:	4b30      	ldr	r3, [pc, #192]	@ (8000970 <HAL_ETH_MspInit+0x178>)
 80008ae:	6b1b      	ldr	r3, [r3, #48]	@ 0x30
 80008b0:	4a2f      	ldr	r2, [pc, #188]	@ (8000970 <HAL_ETH_MspInit+0x178>)
 80008b2:	f043 0302 	orr.w	r3, r3, #2
 80008b6:	6313      	str	r3, [r2, #48]	@ 0x30
 80008b8:	4b2d      	ldr	r3, [pc, #180]	@ (8000970 <HAL_ETH_MspInit+0x178>)
 80008ba:	6b1b      	ldr	r3, [r3, #48]	@ 0x30
 80008bc:	f003 0302 	and.w	r3, r3, #2
 80008c0:	60fb      	str	r3, [r7, #12]
 80008c2:	68fb      	ldr	r3, [r7, #12]
    __HAL_RCC_GPIOG_CLK_ENABLE();
 80008c4:	2300      	movs	r3, #0
 80008c6:	60bb      	str	r3, [r7, #8]
 80008c8:	4b29      	ldr	r3, [pc, #164]	@ (8000970 <HAL_ETH_MspInit+0x178>)
 80008ca:	6b1b      	ldr	r3, [r3, #48]	@ 0x30
 80008cc:	4a28      	ldr	r2, [pc, #160]	@ (8000970 <HAL_ETH_MspInit+0x178>)
 80008ce:	f043 0340 	orr.w	r3, r3, #64	@ 0x40
 80008d2:	6313      	str	r3, [r2, #48]	@ 0x30
 80008d4:	4b26      	ldr	r3, [pc, #152]	@ (8000970 <HAL_ETH_MspInit+0x178>)
 80008d6:	6b1b      	ldr	r3, [r3, #48]	@ 0x30
 80008d8:	f003 0340 	and.w	r3, r3, #64	@ 0x40
 80008dc:	60bb      	str	r3, [r7, #8]
 80008de:	68bb      	ldr	r3, [r7, #8]
    PC5     ------> ETH_RXD1
    PB13     ------> ETH_TXD1
    PG11     ------> ETH_TX_EN
    PG13     ------> ETH_TXD0
    */
    GPIO_InitStruct.Pin = RMII_MDC_Pin|RMII_RXD0_Pin|RMII_RXD1_Pin;
 80008e0:	2332      	movs	r3, #50	@ 0x32
 80008e2:	627b      	str	r3, [r7, #36]	@ 0x24
    GPIO_InitStruct.Mode = GPIO_MODE_AF_PP;
 80008e4:	2302      	movs	r3, #2
 80008e6:	62bb      	str	r3, [r7, #40]	@ 0x28
    GPIO_InitStruct.Pull = GPIO_NOPULL;
 80008e8:	2300      	movs	r3, #0
 80008ea:	62fb      	str	r3, [r7, #44]	@ 0x2c
    GPIO_InitStruct.Speed = GPIO_SPEED_FREQ_VERY_HIGH;
 80008ec:	2303      	movs	r3, #3
 80008ee:	633b      	str	r3, [r7, #48]	@ 0x30
    GPIO_InitStruct.Alternate = GPIO_AF11_ETH;
 80008f0:	230b      	movs	r3, #11
 80008f2:	637b      	str	r3, [r7, #52]	@ 0x34
    HAL_GPIO_Init(GPIOC, &GPIO_InitStruct);
 80008f4:	f107 0324 	add.w	r3, r7, #36	@ 0x24
 80008f8:	4619      	mov	r1, r3
 80008fa:	481e      	ldr	r0, [pc, #120]	@ (8000974 <HAL_ETH_MspInit+0x17c>)
 80008fc:	f000 ff2c 	bl	8001758 <HAL_GPIO_Init>

    GPIO_InitStruct.Pin = RMII_REF_CLK_Pin|RMII_MDIO_Pin|RMII_CRS_DV_Pin;
 8000900:	2386      	movs	r3, #134	@ 0x86
 8000902:	627b      	str	r3, [r7, #36]	@ 0x24
    GPIO_InitStruct.Mode = GPIO_MODE_AF_PP;
 8000904:	2302      	movs	r3, #2
 8000906:	62bb      	str	r3, [r7, #40]	@ 0x28
    GPIO_InitStruct.Pull = GPIO_NOPULL;
 8000908:	2300      	movs	r3, #0
 800090a:	62fb      	str	r3, [r7, #44]	@ 0x2c
    GPIO_InitStruct.Speed = GPIO_SPEED_FREQ_VERY_HIGH;
 800090c:	2303      	movs	r3, #3
 800090e:	633b      	str	r3, [r7, #48]	@ 0x30
    GPIO_InitStruct.Alternate = GPIO_AF11_ETH;
 8000910:	230b      	movs	r3, #11
 8000912:	637b      	str	r3, [r7, #52]	@ 0x34
    HAL_GPIO_Init(GPIOA, &GPIO_InitStruct);
 8000914:	f107 0324 	add.w	r3, r7, #36	@ 0x24
 8000918:	4619      	mov	r1, r3
 800091a:	4817      	ldr	r0, [pc, #92]	@ (8000978 <HAL_ETH_MspInit+0x180>)
 800091c:	f000 ff1c 	bl	8001758 <HAL_GPIO_Init>

    GPIO_InitStruct.Pin = RMII_TXD1_Pin;
 8000920:	f44f 5300 	mov.w	r3, #8192	@ 0x2000
 8000924:	627b      	str	r3, [r7, #36]	@ 0x24
    GPIO_InitStruct.Mode = GPIO_MODE_AF_PP;
 8000926:	2302      	movs	r3, #2
 8000928:	62bb      	str	r3, [r7, #40]	@ 0x28
    GPIO_InitStruct.Pull = GPIO_NOPULL;
 800092a:	2300      	movs	r3, #0
 800092c:	62fb      	str	r3, [r7, #44]	@ 0x2c
    GPIO_InitStruct.Speed = GPIO_SPEED_FREQ_VERY_HIGH;
 800092e:	2303      	movs	r3, #3
 8000930:	633b      	str	r3, [r7, #48]	@ 0x30
    GPIO_InitStruct.Alternate = GPIO_AF11_ETH;
 8000932:	230b      	movs	r3, #11
 8000934:	637b      	str	r3, [r7, #52]	@ 0x34
    HAL_GPIO_Init(RMII_TXD1_GPIO_Port, &GPIO_InitStruct);
 8000936:	f107 0324 	add.w	r3, r7, #36	@ 0x24
 800093a:	4619      	mov	r1, r3
 800093c:	480f      	ldr	r0, [pc, #60]	@ (800097c <HAL_ETH_MspInit+0x184>)
 800093e:	f000 ff0b 	bl	8001758 <HAL_GPIO_Init>

    GPIO_InitStruct.Pin = RMII_TX_EN_Pin|RMII_TXD0_Pin;
 8000942:	f44f 5320 	mov.w	r3, #10240	@ 0x2800
 8000946:	627b      	str	r3, [r7, #36]	@ 0x24
    GPIO_InitStruct.Mode = GPIO_MODE_AF_PP;
 8000948:	2302      	movs	r3, #2
 800094a:	62bb      	str	r3, [r7, #40]	@ 0x28
    GPIO_InitStruct.Pull = GPIO_NOPULL;
 800094c:	2300      	movs	r3, #0
 800094e:	62fb      	str	r3, [r7, #44]	@ 0x2c
    GPIO_InitStruct.Speed = GPIO_SPEED_FREQ_VERY_HIGH;
 8000950:	2303      	movs	r3, #3
 8000952:	633b      	str	r3, [r7, #48]	@ 0x30
    GPIO_InitStruct.Alternate = GPIO_AF11_ETH;
 8000954:	230b      	movs	r3, #11
 8000956:	637b      	str	r3, [r7, #52]	@ 0x34
    HAL_GPIO_Init(GPIOG, &GPIO_InitStruct);
 8000958:	f107 0324 	add.w	r3, r7, #36	@ 0x24
 800095c:	4619      	mov	r1, r3
 800095e:	4808      	ldr	r0, [pc, #32]	@ (8000980 <HAL_ETH_MspInit+0x188>)
 8000960:	f000 fefa 	bl	8001758 <HAL_GPIO_Init>

  /* USER CODE END ETH_MspInit 1 */

  }

}
 8000964:	bf00      	nop
 8000966:	3738      	adds	r7, #56	@ 0x38
 8000968:	46bd      	mov	sp, r7
 800096a:	bd80      	pop	{r7, pc}
 800096c:	40028000 	.word	0x40028000
 8000970:	40023800 	.word	0x40023800
 8000974:	40020800 	.word	0x40020800
 8000978:	40020000 	.word	0x40020000
 800097c:	40020400 	.word	0x40020400
 8000980:	40021800 	.word	0x40021800

08000984 <HAL_UART_MspInit>:
* This function configures the hardware resources used in this example
* @param huart: UART handle pointer
* @retval None
*/
void HAL_UART_MspInit(UART_HandleTypeDef* huart)
{
 8000984:	b580      	push	{r7, lr}
 8000986:	b08a      	sub	sp, #40	@ 0x28
 8000988:	af00      	add	r7, sp, #0
 800098a:	6078      	str	r0, [r7, #4]
  GPIO_InitTypeDef GPIO_InitStruct = {0};
 800098c:	f107 0314 	add.w	r3, r7, #20
 8000990:	2200      	movs	r2, #0
 8000992:	601a      	str	r2, [r3, #0]
 8000994:	605a      	str	r2, [r3, #4]
 8000996:	609a      	str	r2, [r3, #8]
 8000998:	60da      	str	r2, [r3, #12]
 800099a:	611a      	str	r2, [r3, #16]
  if(huart->Instance==USART3)
 800099c:	687b      	ldr	r3, [r7, #4]
 800099e:	681b      	ldr	r3, [r3, #0]
 80009a0:	4a19      	ldr	r2, [pc, #100]	@ (8000a08 <HAL_UART_MspInit+0x84>)
 80009a2:	4293      	cmp	r3, r2
 80009a4:	d12c      	bne.n	8000a00 <HAL_UART_MspInit+0x7c>
  {
  /* USER CODE BEGIN USART3_MspInit 0 */

  /* USER CODE END USART3_MspInit 0 */
    /* Peripheral clock enable */
    __HAL_RCC_USART3_CLK_ENABLE();
 80009a6:	2300      	movs	r3, #0
 80009a8:	613b      	str	r3, [r7, #16]
 80009aa:	4b18      	ldr	r3, [pc, #96]	@ (8000a0c <HAL_UART_MspInit+0x88>)
 80009ac:	6c1b      	ldr	r3, [r3, #64]	@ 0x40
 80009ae:	4a17      	ldr	r2, [pc, #92]	@ (8000a0c <HAL_UART_MspInit+0x88>)
 80009b0:	f443 2380 	orr.w	r3, r3, #262144	@ 0x40000
 80009b4:	6413      	str	r3, [r2, #64]	@ 0x40
 80009b6:	4b15      	ldr	r3, [pc, #84]	@ (8000a0c <HAL_UART_MspInit+0x88>)
 80009b8:	6c1b      	ldr	r3, [r3, #64]	@ 0x40
 80009ba:	f403 2380 	and.w	r3, r3, #262144	@ 0x40000
 80009be:	613b      	str	r3, [r7, #16]
 80009c0:	693b      	ldr	r3, [r7, #16]

    __HAL_RCC_GPIOD_CLK_ENABLE();
 80009c2:	2300      	movs	r3, #0
 80009c4:	60fb      	str	r3, [r7, #12]
 80009c6:	4b11      	ldr	r3, [pc, #68]	@ (8000a0c <HAL_UART_MspInit+0x88>)
 80009c8:	6b1b      	ldr	r3, [r3, #48]	@ 0x30
 80009ca:	4a10      	ldr	r2, [pc, #64]	@ (8000a0c <HAL_UART_MspInit+0x88>)
 80009cc:	f043 0308 	orr.w	r3, r3, #8
 80009d0:	6313      	str	r3, [r2, #48]	@ 0x30
 80009d2:	4b0e      	ldr	r3, [pc, #56]	@ (8000a0c <HAL_UART_MspInit+0x88>)
 80009d4:	6b1b      	ldr	r3, [r3, #48]	@ 0x30
 80009d6:	f003 0308 	and.w	r3, r3, #8
 80009da:	60fb      	str	r3, [r7, #12]
 80009dc:	68fb      	ldr	r3, [r7, #12]
    /**USART3 GPIO Configuration
    PD8     ------> USART3_TX
    PD9     ------> USART3_RX
    */
    GPIO_InitStruct.Pin = STLK_RX_Pin|STLK_TX_Pin;
 80009de:	f44f 7340 	mov.w	r3, #768	@ 0x300
 80009e2:	617b      	str	r3, [r7, #20]
    GPIO_InitStruct.Mode = GPIO_MODE_AF_PP;
 80009e4:	2302      	movs	r3, #2
 80009e6:	61bb      	str	r3, [r7, #24]
    GPIO_InitStruct.Pull = GPIO_NOPULL;
 80009e8:	2300      	movs	r3, #0
 80009ea:	61fb      	str	r3, [r7, #28]
    GPIO_InitStruct.Speed = GPIO_SPEED_FREQ_VERY_HIGH;
 80009ec:	2303      	movs	r3, #3
 80009ee:	623b      	str	r3, [r7, #32]
    GPIO_InitStruct.Alternate = GPIO_AF7_USART3;
 80009f0:	2307      	movs	r3, #7
 80009f2:	627b      	str	r3, [r7, #36]	@ 0x24
    HAL_GPIO_Init(GPIOD, &GPIO_InitStruct);
 80009f4:	f107 0314 	add.w	r3, r7, #20
 80009f8:	4619      	mov	r1, r3
 80009fa:	4805      	ldr	r0, [pc, #20]	@ (8000a10 <HAL_UART_MspInit+0x8c>)
 80009fc:	f000 feac 	bl	8001758 <HAL_GPIO_Init>

  /* USER CODE END USART3_MspInit 1 */

  }

}
 8000a00:	bf00      	nop
 8000a02:	3728      	adds	r7, #40	@ 0x28
 8000a04:	46bd      	mov	sp, r7
 8000a06:	bd80      	pop	{r7, pc}
 8000a08:	40004800 	.word	0x40004800
 8000a0c:	40023800 	.word	0x40023800
 8000a10:	40020c00 	.word	0x40020c00

08000a14 <HAL_PCD_MspInit>:
* This function configures the hardware resources used in this example
* @param hpcd: PCD handle pointer
* @retval None
*/
void HAL_PCD_MspInit(PCD_HandleTypeDef* hpcd)
{
 8000a14:	b580      	push	{r7, lr}
 8000a16:	b08a      	sub	sp, #40	@ 0x28
 8000a18:	af00      	add	r7, sp, #0
 8000a1a:	6078      	str	r0, [r7, #4]
  GPIO_InitTypeDef GPIO_InitStruct = {0};
 8000a1c:	f107 0314 	add.w	r3, r7, #20
 8000a20:	2200      	movs	r2, #0
 8000a22:	601a      	str	r2, [r3, #0]
 8000a24:	605a      	str	r2, [r3, #4]
 8000a26:	609a      	str	r2, [r3, #8]
 8000a28:	60da      	str	r2, [r3, #12]
 8000a2a:	611a      	str	r2, [r3, #16]
  if(hpcd->Instance==USB_OTG_FS)
 8000a2c:	687b      	ldr	r3, [r7, #4]
 8000a2e:	681b      	ldr	r3, [r3, #0]
 8000a30:	f1b3 4fa0 	cmp.w	r3, #1342177280	@ 0x50000000
 8000a34:	d13f      	bne.n	8000ab6 <HAL_PCD_MspInit+0xa2>
  {
  /* USER CODE BEGIN USB_OTG_FS_MspInit 0 */

  /* USER CODE END USB_OTG_FS_MspInit 0 */

    __HAL_RCC_GPIOA_CLK_ENABLE();
 8000a36:	2300      	movs	r3, #0
 8000a38:	613b      	str	r3, [r7, #16]
 8000a3a:	4b21      	ldr	r3, [pc, #132]	@ (8000ac0 <HAL_PCD_MspInit+0xac>)
 8000a3c:	6b1b      	ldr	r3, [r3, #48]	@ 0x30
 8000a3e:	4a20      	ldr	r2, [pc, #128]	@ (8000ac0 <HAL_PCD_MspInit+0xac>)
 8000a40:	f043 0301 	orr.w	r3, r3, #1
 8000a44:	6313      	str	r3, [r2, #48]	@ 0x30
 8000a46:	4b1e      	ldr	r3, [pc, #120]	@ (8000ac0 <HAL_PCD_MspInit+0xac>)
 8000a48:	6b1b      	ldr	r3, [r3, #48]	@ 0x30
 8000a4a:	f003 0301 	and.w	r3, r3, #1
 8000a4e:	613b      	str	r3, [r7, #16]
 8000a50:	693b      	ldr	r3, [r7, #16]
    PA9     ------> USB_OTG_FS_VBUS
    PA10     ------> USB_OTG_FS_ID
    PA11     ------> USB_OTG_FS_DM
    PA12     ------> USB_OTG_FS_DP
    */
    GPIO_InitStruct.Pin = USB_SOF_Pin|USB_ID_Pin|USB_DM_Pin|USB_DP_Pin;
 8000a52:	f44f 53e8 	mov.w	r3, #7424	@ 0x1d00
 8000a56:	617b      	str	r3, [r7, #20]
    GPIO_InitStruct.Mode = GPIO_MODE_AF_PP;
 8000a58:	2302      	movs	r3, #2
 8000a5a:	61bb      	str	r3, [r7, #24]
    GPIO_InitStruct.Pull = GPIO_NOPULL;
 8000a5c:	2300      	movs	r3, #0
 8000a5e:	61fb      	str	r3, [r7, #28]
    GPIO_InitStruct.Speed = GPIO_SPEED_FREQ_VERY_HIGH;
 8000a60:	2303      	movs	r3, #3
 8000a62:	623b      	str	r3, [r7, #32]
    GPIO_InitStruct.Alternate = GPIO_AF10_OTG_FS;
 8000a64:	230a      	movs	r3, #10
 8000a66:	627b      	str	r3, [r7, #36]	@ 0x24
    HAL_GPIO_Init(GPIOA, &GPIO_InitStruct);
 8000a68:	f107 0314 	add.w	r3, r7, #20
 8000a6c:	4619      	mov	r1, r3
 8000a6e:	4815      	ldr	r0, [pc, #84]	@ (8000ac4 <HAL_PCD_MspInit+0xb0>)
 8000a70:	f000 fe72 	bl	8001758 <HAL_GPIO_Init>

    GPIO_InitStruct.Pin = USB_VBUS_Pin;
 8000a74:	f44f 7300 	mov.w	r3, #512	@ 0x200
 8000a78:	617b      	str	r3, [r7, #20]
    GPIO_InitStruct.Mode = GPIO_MODE_INPUT;
 8000a7a:	2300      	movs	r3, #0
 8000a7c:	61bb      	str	r3, [r7, #24]
    GPIO_InitStruct.Pull = GPIO_NOPULL;
 8000a7e:	2300      	movs	r3, #0
 8000a80:	61fb      	str	r3, [r7, #28]
    HAL_GPIO_Init(USB_VBUS_GPIO_Port, &GPIO_InitStruct);
 8000a82:	f107 0314 	add.w	r3, r7, #20
 8000a86:	4619      	mov	r1, r3
 8000a88:	480e      	ldr	r0, [pc, #56]	@ (8000ac4 <HAL_PCD_MspInit+0xb0>)
 8000a8a:	f000 fe65 	bl	8001758 <HAL_GPIO_Init>

    /* Peripheral clock enable */
    __HAL_RCC_USB_OTG_FS_CLK_ENABLE();
 8000a8e:	4b0c      	ldr	r3, [pc, #48]	@ (8000ac0 <HAL_PCD_MspInit+0xac>)
 8000a90:	6b5b      	ldr	r3, [r3, #52]	@ 0x34
 8000a92:	4a0b      	ldr	r2, [pc, #44]	@ (8000ac0 <HAL_PCD_MspInit+0xac>)
 8000a94:	f043 0380 	orr.w	r3, r3, #128	@ 0x80
 8000a98:	6353      	str	r3, [r2, #52]	@ 0x34
 8000a9a:	2300      	movs	r3, #0
 8000a9c:	60fb      	str	r3, [r7, #12]
 8000a9e:	4b08      	ldr	r3, [pc, #32]	@ (8000ac0 <HAL_PCD_MspInit+0xac>)
 8000aa0:	6c5b      	ldr	r3, [r3, #68]	@ 0x44
 8000aa2:	4a07      	ldr	r2, [pc, #28]	@ (8000ac0 <HAL_PCD_MspInit+0xac>)
 8000aa4:	f443 4380 	orr.w	r3, r3, #16384	@ 0x4000
 8000aa8:	6453      	str	r3, [r2, #68]	@ 0x44
 8000aaa:	4b05      	ldr	r3, [pc, #20]	@ (8000ac0 <HAL_PCD_MspInit+0xac>)
 8000aac:	6c5b      	ldr	r3, [r3, #68]	@ 0x44
 8000aae:	f403 4380 	and.w	r3, r3, #16384	@ 0x4000
 8000ab2:	60fb      	str	r3, [r7, #12]
 8000ab4:	68fb      	ldr	r3, [r7, #12]

  /* USER CODE END USB_OTG_FS_MspInit 1 */

  }

}
 8000ab6:	bf00      	nop
 8000ab8:	3728      	adds	r7, #40	@ 0x28
 8000aba:	46bd      	mov	sp, r7
 8000abc:	bd80      	pop	{r7, pc}
 8000abe:	bf00      	nop
 8000ac0:	40023800 	.word	0x40023800
 8000ac4:	40020000 	.word	0x40020000

08000ac8 <NMI_Handler>:
/******************************************************************************/
/**
  * @brief This function handles Non maskable interrupt.
  */
void NMI_Handler(void)
{
 8000ac8:	b480      	push	{r7}
 8000aca:	af00      	add	r7, sp, #0
  /* USER CODE BEGIN NonMaskableInt_IRQn 0 */

  /* USER CODE END NonMaskableInt_IRQn 0 */
  /* USER CODE BEGIN NonMaskableInt_IRQn 1 */
   while (1)
 8000acc:	bf00      	nop
 8000ace:	e7fd      	b.n	8000acc <NMI_Handler+0x4>

08000ad0 <HardFault_Handler>:

/**
  * @brief This function handles Hard fault interrupt.
  */
void HardFault_Handler(void)
{
 8000ad0:	b480      	push	{r7}
 8000ad2:	af00      	add	r7, sp, #0
  /* USER CODE BEGIN HardFault_IRQn 0 */

  /* USER CODE END HardFault_IRQn 0 */
  while (1)
 8000ad4:	bf00      	nop
 8000ad6:	e7fd      	b.n	8000ad4 <HardFault_Handler+0x4>

08000ad8 <MemManage_Handler>:

/**
  * @brief This function handles Memory management fault.
  */
void MemManage_Handler(void)
{
 8000ad8:	b480      	push	{r7}
 8000ada:	af00      	add	r7, sp, #0
  /* USER CODE BEGIN MemoryManagement_IRQn 0 */

  /* USER CODE END MemoryManagement_IRQn 0 */
  while (1)
 8000adc:	bf00      	nop
 8000ade:	e7fd      	b.n	8000adc <MemManage_Handler+0x4>

08000ae0 <BusFault_Handler>:

/**
  * @brief This function handles Pre-fetch fault, memory access fault.
  */
void BusFault_Handler(void)
{
 8000ae0:	b480      	push	{r7}
 8000ae2:	af00      	add	r7, sp, #0
  /* USER CODE BEGIN BusFault_IRQn 0 */

  /* USER CODE END BusFault_IRQn 0 */
  while (1)
 8000ae4:	bf00      	nop
 8000ae6:	e7fd      	b.n	8000ae4 <BusFault_Handler+0x4>

08000ae8 <UsageFault_Handler>:

/**
  * @brief This function handles Undefined instruction or illegal state.
  */
void UsageFault_Handler(void)
{
 8000ae8:	b480      	push	{r7}
 8000aea:	af00      	add	r7, sp, #0
  /* USER CODE BEGIN UsageFault_IRQn 0 */

  /* USER CODE END UsageFault_IRQn 0 */
  while (1)
 8000aec:	bf00      	nop
 8000aee:	e7fd      	b.n	8000aec <UsageFault_Handler+0x4>

08000af0 <SVC_Handler>:

/**
  * @brief This function handles System service call via SWI instruction.
  */
void SVC_Handler(void)
{
 8000af0:	b480      	push	{r7}
 8000af2:	af00      	add	r7, sp, #0

  /* USER CODE END SVCall_IRQn 0 */
  /* USER CODE BEGIN SVCall_IRQn 1 */

  /* USER CODE END SVCall_IRQn 1 */
}
 8000af4:	bf00      	nop
 8000af6:	46bd      	mov	sp, r7
 8000af8:	f85d 7b04 	ldr.w	r7, [sp], #4
 8000afc:	4770      	bx	lr

08000afe <DebugMon_Handler>:

/**
  * @brief This function handles Debug monitor.
  */
void DebugMon_Handler(void)
{
 8000afe:	b480      	push	{r7}
 8000b00:	af00      	add	r7, sp, #0

  /* USER CODE END DebugMonitor_IRQn 0 */
  /* USER CODE BEGIN DebugMonitor_IRQn 1 */

  /* USER CODE END DebugMonitor_IRQn 1 */
}
 8000b02:	bf00      	nop
 8000b04:	46bd      	mov	sp, r7
 8000b06:	f85d 7b04 	ldr.w	r7, [sp], #4
 8000b0a:	4770      	bx	lr

08000b0c <PendSV_Handler>:

/**
  * @brief This function handles Pendable request for system service.
  */
void PendSV_Handler(void)
{
 8000b0c:	b480      	push	{r7}
 8000b0e:	af00      	add	r7, sp, #0

  /* USER CODE END PendSV_IRQn 0 */
  /* USER CODE BEGIN PendSV_IRQn 1 */

  /* USER CODE END PendSV_IRQn 1 */
}
 8000b10:	bf00      	nop
 8000b12:	46bd      	mov	sp, r7
 8000b14:	f85d 7b04 	ldr.w	r7, [sp], #4
 8000b18:	4770      	bx	lr

08000b1a <SysTick_Handler>:

/**
  * @brief This function handles System tick timer.
  */
void SysTick_Handler(void)
{
 8000b1a:	b580      	push	{r7, lr}
 8000b1c:	af00      	add	r7, sp, #0
  /* USER CODE BEGIN SysTick_IRQn 0 */

  /* USER CODE END SysTick_IRQn 0 */
  HAL_IncTick();
 8000b1e:	f000 f9a1 	bl	8000e64 <HAL_IncTick>
  /* USER CODE BEGIN SysTick_IRQn 1 */

  /* USER CODE END SysTick_IRQn 1 */
}
 8000b22:	bf00      	nop
 8000b24:	bd80      	pop	{r7, pc}
	...

08000b28 <SystemInit>:
  *         configuration.
  * @param  None
  * @retval None
  */
void SystemInit(void)
{
 8000b28:	b480      	push	{r7}
 8000b2a:	af00      	add	r7, sp, #0
  /* FPU settings ------------------------------------------------------------*/
  #if (__FPU_PRESENT == 1) && (__FPU_USED == 1)
    SCB->CPACR |= ((3UL << 10*2)|(3UL << 11*2));  /* set CP10 and CP11 Full Access */
 8000b2c:	4b06      	ldr	r3, [pc, #24]	@ (8000b48 <SystemInit+0x20>)
 8000b2e:	f8d3 3088 	ldr.w	r3, [r3, #136]	@ 0x88
 8000b32:	4a05      	ldr	r2, [pc, #20]	@ (8000b48 <SystemInit+0x20>)
 8000b34:	f443 0370 	orr.w	r3, r3, #15728640	@ 0xf00000
 8000b38:	f8c2 3088 	str.w	r3, [r2, #136]	@ 0x88

  /* Configure the Vector Table location -------------------------------------*/
#if defined(USER_VECT_TAB_ADDRESS)
  SCB->VTOR = VECT_TAB_BASE_ADDRESS | VECT_TAB_OFFSET; /* Vector Table Relocation in Internal SRAM */
#endif /* USER_VECT_TAB_ADDRESS */
}
 8000b3c:	bf00      	nop
 8000b3e:	46bd      	mov	sp, r7
 8000b40:	f85d 7b04 	ldr.w	r7, [sp], #4
 8000b44:	4770      	bx	lr
 8000b46:	bf00      	nop
 8000b48:	e000ed00 	.word	0xe000ed00

08000b4c <Reset_Handler>:

    .section  .text.Reset_Handler
  .weak  Reset_Handler
  .type  Reset_Handler, %function
Reset_Handler: 
  ldr   sp, =_estack       /* set stack pointer */
 8000b4c:	f8df d034 	ldr.w	sp, [pc, #52]	@ 8000b84 <LoopFillZerobss+0xe>

/* Call the clock system initialization function.*/
  bl  SystemInit   
 8000b50:	f7ff ffea 	bl	8000b28 <SystemInit>
 
/* Copy the data segment initializers from flash to SRAM */  
  ldr r0, =_sdata
 8000b54:	480c      	ldr	r0, [pc, #48]	@ (8000b88 <LoopFillZerobss+0x12>)
  ldr r1, =_edata
 8000b56:	490d      	ldr	r1, [pc, #52]	@ (8000b8c <LoopFillZerobss+0x16>)
  ldr r2, =_sidata
 8000b58:	4a0d      	ldr	r2, [pc, #52]	@ (8000b90 <LoopFillZerobss+0x1a>)
  movs r3, #0
 8000b5a:	2300      	movs	r3, #0
  b LoopCopyDataInit
 8000b5c:	e002      	b.n	8000b64 <LoopCopyDataInit>

08000b5e <CopyDataInit>:

CopyDataInit:
  ldr r4, [r2, r3]
 8000b5e:	58d4      	ldr	r4, [r2, r3]
  str r4, [r0, r3]
 8000b60:	50c4      	str	r4, [r0, r3]
  adds r3, r3, #4
 8000b62:	3304      	adds	r3, #4

08000b64 <LoopCopyDataInit>:

LoopCopyDataInit:
  adds r4, r0, r3
 8000b64:	18c4      	adds	r4, r0, r3
  cmp r4, r1
 8000b66:	428c      	cmp	r4, r1
  bcc CopyDataInit
 8000b68:	d3f9      	bcc.n	8000b5e <CopyDataInit>
  
/* Zero fill the bss segment. */
  ldr r2, =_sbss
 8000b6a:	4a0a      	ldr	r2, [pc, #40]	@ (8000b94 <LoopFillZerobss+0x1e>)
  ldr r4, =_ebss
 8000b6c:	4c0a      	ldr	r4, [pc, #40]	@ (8000b98 <LoopFillZerobss+0x22>)
  movs r3, #0
 8000b6e:	2300      	movs	r3, #0
  b LoopFillZerobss
 8000b70:	e001      	b.n	8000b76 <LoopFillZerobss>

08000b72 <FillZerobss>:

FillZerobss:
  str  r3, [r2]
 8000b72:	6013      	str	r3, [r2, #0]
  adds r2, r2, #4
 8000b74:	3204      	adds	r2, #4

08000b76 <LoopFillZerobss>:

LoopFillZerobss:
  cmp r2, r4
 8000b76:	42a2      	cmp	r2, r4
  bcc FillZerobss
 8000b78:	d3fb      	bcc.n	8000b72 <FillZerobss>
  
/* Call static constructors */
    bl __libc_init_array
 8000b7a:	f002 fb25 	bl	80031c8 <__libc_init_array>
/* Call the application's entry point.*/
  bl  main
 8000b7e:	f7ff fcad 	bl	80004dc <main>
  bx  lr    
 8000b82:	4770      	bx	lr
  ldr   sp, =_estack       /* set stack pointer */
 8000b84:	20030000 	.word	0x20030000
  ldr r0, =_sdata
 8000b88:	20000000 	.word	0x20000000
  ldr r1, =_edata
 8000b8c:	2000000c 	.word	0x2000000c
  ldr r2, =_sidata
 8000b90:	08003258 	.word	0x08003258
  ldr r2, =_sbss
 8000b94:	2000000c 	.word	0x2000000c
  ldr r4, =_ebss
 8000b98:	20000788 	.word	0x20000788

08000b9c <ADC_IRQHandler>:
 * @retval None       
*/
    .section  .text.Default_Handler,"ax",%progbits
Default_Handler:
Infinite_Loop:
  b  Infinite_Loop
 8000b9c:	e7fe      	b.n	8000b9c <ADC_IRQHandler>
	...

08000ba0 <MX_GPIO_Init>:
  * @brief GPIO Initialization Function
  * @param None
  * @retval None
  */
void MX_GPIO_Init(void)
{
 8000ba0:	b580      	push	{r7, lr}
 8000ba2:	b08c      	sub	sp, #48	@ 0x30
 8000ba4:	af00      	add	r7, sp, #0
  GPIO_InitTypeDef GPIO_InitStruct = {0};
 8000ba6:	f107 031c 	add.w	r3, r7, #28
 8000baa:	2200      	movs	r2, #0
 8000bac:	601a      	str	r2, [r3, #0]
 8000bae:	605a      	str	r2, [r3, #4]
 8000bb0:	609a      	str	r2, [r3, #8]
 8000bb2:	60da      	str	r2, [r3, #12]
 8000bb4:	611a      	str	r2, [r3, #16]
/* USER CODE BEGIN MX_GPIO_Init_1 */
/* USER CODE END MX_GPIO_Init_1 */

  /* GPIO Ports Clock Enable */
  __HAL_RCC_GPIOC_CLK_ENABLE();
 8000bb6:	2300      	movs	r3, #0
 8000bb8:	61bb      	str	r3, [r7, #24]
 8000bba:	4b4c      	ldr	r3, [pc, #304]	@ (8000cec <MX_GPIO_Init+0x14c>)
 8000bbc:	6b1b      	ldr	r3, [r3, #48]	@ 0x30
 8000bbe:	4a4b      	ldr	r2, [pc, #300]	@ (8000cec <MX_GPIO_Init+0x14c>)
 8000bc0:	f043 0304 	orr.w	r3, r3, #4
 8000bc4:	6313      	str	r3, [r2, #48]	@ 0x30
 8000bc6:	4b49      	ldr	r3, [pc, #292]	@ (8000cec <MX_GPIO_Init+0x14c>)
 8000bc8:	6b1b      	ldr	r3, [r3, #48]	@ 0x30
 8000bca:	f003 0304 	and.w	r3, r3, #4
 8000bce:	61bb      	str	r3, [r7, #24]
 8000bd0:	69bb      	ldr	r3, [r7, #24]
  __HAL_RCC_GPIOH_CLK_ENABLE();
 8000bd2:	2300      	movs	r3, #0
 8000bd4:	617b      	str	r3, [r7, #20]
 8000bd6:	4b45      	ldr	r3, [pc, #276]	@ (8000cec <MX_GPIO_Init+0x14c>)
 8000bd8:	6b1b      	ldr	r3, [r3, #48]	@ 0x30
 8000bda:	4a44      	ldr	r2, [pc, #272]	@ (8000cec <MX_GPIO_Init+0x14c>)
 8000bdc:	f043 0380 	orr.w	r3, r3, #128	@ 0x80
 8000be0:	6313      	str	r3, [r2, #48]	@ 0x30
 8000be2:	4b42      	ldr	r3, [pc, #264]	@ (8000cec <MX_GPIO_Init+0x14c>)
 8000be4:	6b1b      	ldr	r3, [r3, #48]	@ 0x30
 8000be6:	f003 0380 	and.w	r3, r3, #128	@ 0x80
 8000bea:	617b      	str	r3, [r7, #20]
 8000bec:	697b      	ldr	r3, [r7, #20]
  __HAL_RCC_GPIOB_CLK_ENABLE();
 8000bee:	2300      	movs	r3, #0
 8000bf0:	613b      	str	r3, [r7, #16]
 8000bf2:	4b3e      	ldr	r3, [pc, #248]	@ (8000cec <MX_GPIO_Init+0x14c>)
 8000bf4:	6b1b      	ldr	r3, [r3, #48]	@ 0x30
 8000bf6:	4a3d      	ldr	r2, [pc, #244]	@ (8000cec <MX_GPIO_Init+0x14c>)
 8000bf8:	f043 0302 	orr.w	r3, r3, #2
 8000bfc:	6313      	str	r3, [r2, #48]	@ 0x30
 8000bfe:	4b3b      	ldr	r3, [pc, #236]	@ (8000cec <MX_GPIO_Init+0x14c>)
 8000c00:	6b1b      	ldr	r3, [r3, #48]	@ 0x30
 8000c02:	f003 0302 	and.w	r3, r3, #2
 8000c06:	613b      	str	r3, [r7, #16]
 8000c08:	693b      	ldr	r3, [r7, #16]
  __HAL_RCC_GPIOD_CLK_ENABLE();
 8000c0a:	2300      	movs	r3, #0
 8000c0c:	60fb      	str	r3, [r7, #12]
 8000c0e:	4b37      	ldr	r3, [pc, #220]	@ (8000cec <MX_GPIO_Init+0x14c>)
 8000c10:	6b1b      	ldr	r3, [r3, #48]	@ 0x30
 8000c12:	4a36      	ldr	r2, [pc, #216]	@ (8000cec <MX_GPIO_Init+0x14c>)
 8000c14:	f043 0308 	orr.w	r3, r3, #8
 8000c18:	6313      	str	r3, [r2, #48]	@ 0x30
 8000c1a:	4b34      	ldr	r3, [pc, #208]	@ (8000cec <MX_GPIO_Init+0x14c>)
 8000c1c:	6b1b      	ldr	r3, [r3, #48]	@ 0x30
 8000c1e:	f003 0308 	and.w	r3, r3, #8
 8000c22:	60fb      	str	r3, [r7, #12]
 8000c24:	68fb      	ldr	r3, [r7, #12]
  __HAL_RCC_GPIOG_CLK_ENABLE();
 8000c26:	2300      	movs	r3, #0
 8000c28:	60bb      	str	r3, [r7, #8]
 8000c2a:	4b30      	ldr	r3, [pc, #192]	@ (8000cec <MX_GPIO_Init+0x14c>)
 8000c2c:	6b1b      	ldr	r3, [r3, #48]	@ 0x30
 8000c2e:	4a2f      	ldr	r2, [pc, #188]	@ (8000cec <MX_GPIO_Init+0x14c>)
 8000c30:	f043 0340 	orr.w	r3, r3, #64	@ 0x40
 8000c34:	6313      	str	r3, [r2, #48]	@ 0x30
 8000c36:	4b2d      	ldr	r3, [pc, #180]	@ (8000cec <MX_GPIO_Init+0x14c>)
 8000c38:	6b1b      	ldr	r3, [r3, #48]	@ 0x30
 8000c3a:	f003 0340 	and.w	r3, r3, #64	@ 0x40
 8000c3e:	60bb      	str	r3, [r7, #8]
 8000c40:	68bb      	ldr	r3, [r7, #8]
  __HAL_RCC_GPIOA_CLK_ENABLE();
 8000c42:	2300      	movs	r3, #0
 8000c44:	607b      	str	r3, [r7, #4]
 8000c46:	4b29      	ldr	r3, [pc, #164]	@ (8000cec <MX_GPIO_Init+0x14c>)
 8000c48:	6b1b      	ldr	r3, [r3, #48]	@ 0x30
 8000c4a:	4a28      	ldr	r2, [pc, #160]	@ (8000cec <MX_GPIO_Init+0x14c>)
 8000c4c:	f043 0301 	orr.w	r3, r3, #1
 8000c50:	6313      	str	r3, [r2, #48]	@ 0x30
 8000c52:	4b26      	ldr	r3, [pc, #152]	@ (8000cec <MX_GPIO_Init+0x14c>)
 8000c54:	6b1b      	ldr	r3, [r3, #48]	@ 0x30
 8000c56:	f003 0301 	and.w	r3, r3, #1
 8000c5a:	607b      	str	r3, [r7, #4]
 8000c5c:	687b      	ldr	r3, [r7, #4]

  /*Configure GPIO pin Output Level */
  HAL_GPIO_WritePin(GPIOB, LD1_Pin|LD3_Pin|LD2_Pin, GPIO_PIN_RESET);
 8000c5e:	2200      	movs	r2, #0
 8000c60:	f244 0181 	movw	r1, #16513	@ 0x4081
 8000c64:	4822      	ldr	r0, [pc, #136]	@ (8000cf0 <MX_GPIO_Init+0x150>)
 8000c66:	f000 ff23 	bl	8001ab0 <HAL_GPIO_WritePin>

  /*Configure GPIO pin Output Level */
  HAL_GPIO_WritePin(USB_PowerSwitchOn_GPIO_Port, USB_PowerSwitchOn_Pin, GPIO_PIN_RESET);
 8000c6a:	2200      	movs	r2, #0
 8000c6c:	2140      	movs	r1, #64	@ 0x40
 8000c6e:	4821      	ldr	r0, [pc, #132]	@ (8000cf4 <MX_GPIO_Init+0x154>)
 8000c70:	f000 ff1e 	bl	8001ab0 <HAL_GPIO_WritePin>

  /*Configure GPIO pin : USER_Btn_Pin */
  GPIO_InitStruct.Pin = USER_Btn_Pin;
 8000c74:	f44f 5300 	mov.w	r3, #8192	@ 0x2000
 8000c78:	61fb      	str	r3, [r7, #28]
  GPIO_InitStruct.Mode = GPIO_MODE_IT_RISING;
 8000c7a:	f44f 1388 	mov.w	r3, #1114112	@ 0x110000
 8000c7e:	623b      	str	r3, [r7, #32]
  GPIO_InitStruct.Pull = GPIO_NOPULL;
 8000c80:	2300      	movs	r3, #0
 8000c82:	627b      	str	r3, [r7, #36]	@ 0x24
  HAL_GPIO_Init(USER_Btn_GPIO_Port, &GPIO_InitStruct);
 8000c84:	f107 031c 	add.w	r3, r7, #28
 8000c88:	4619      	mov	r1, r3
 8000c8a:	481b      	ldr	r0, [pc, #108]	@ (8000cf8 <MX_GPIO_Init+0x158>)
 8000c8c:	f000 fd64 	bl	8001758 <HAL_GPIO_Init>

  /*Configure GPIO pins : LD1_Pin LD3_Pin LD2_Pin */
  GPIO_InitStruct.Pin = LD1_Pin|LD3_Pin|LD2_Pin;
 8000c90:	f244 0381 	movw	r3, #16513	@ 0x4081
 8000c94:	61fb      	str	r3, [r7, #28]
  GPIO_InitStruct.Mode = GPIO_MODE_OUTPUT_PP;
 8000c96:	2301      	movs	r3, #1
 8000c98:	623b      	str	r3, [r7, #32]
  GPIO_InitStruct.Pull = GPIO_NOPULL;
 8000c9a:	2300      	movs	r3, #0
 8000c9c:	627b      	str	r3, [r7, #36]	@ 0x24
  GPIO_InitStruct.Speed = GPIO_SPEED_FREQ_LOW;
 8000c9e:	2300      	movs	r3, #0
 8000ca0:	62bb      	str	r3, [r7, #40]	@ 0x28
  HAL_GPIO_Init(GPIOB, &GPIO_InitStruct);
 8000ca2:	f107 031c 	add.w	r3, r7, #28
 8000ca6:	4619      	mov	r1, r3
 8000ca8:	4811      	ldr	r0, [pc, #68]	@ (8000cf0 <MX_GPIO_Init+0x150>)
 8000caa:	f000 fd55 	bl	8001758 <HAL_GPIO_Init>

  /*Configure GPIO pin : USB_PowerSwitchOn_Pin */
  GPIO_InitStruct.Pin = USB_PowerSwitchOn_Pin;
 8000cae:	2340      	movs	r3, #64	@ 0x40
 8000cb0:	61fb      	str	r3, [r7, #28]
  GPIO_InitStruct.Mode = GPIO_MODE_OUTPUT_PP;
 8000cb2:	2301      	movs	r3, #1
 8000cb4:	623b      	str	r3, [r7, #32]
  GPIO_InitStruct.Pull = GPIO_NOPULL;
 8000cb6:	2300      	movs	r3, #0
 8000cb8:	627b      	str	r3, [r7, #36]	@ 0x24
  GPIO_InitStruct.Speed = GPIO_SPEED_FREQ_LOW;
 8000cba:	2300      	movs	r3, #0
 8000cbc:	62bb      	str	r3, [r7, #40]	@ 0x28
  HAL_GPIO_Init(USB_PowerSwitchOn_GPIO_Port, &GPIO_InitStruct);
 8000cbe:	f107 031c 	add.w	r3, r7, #28
 8000cc2:	4619      	mov	r1, r3
 8000cc4:	480b      	ldr	r0, [pc, #44]	@ (8000cf4 <MX_GPIO_Init+0x154>)
 8000cc6:	f000 fd47 	bl	8001758 <HAL_GPIO_Init>

  /*Configure GPIO pin : USB_OverCurrent_Pin */
  GPIO_InitStruct.Pin = USB_OverCurrent_Pin;
 8000cca:	2380      	movs	r3, #128	@ 0x80
 8000ccc:	61fb      	str	r3, [r7, #28]
  GPIO_InitStruct.Mode = GPIO_MODE_INPUT;
 8000cce:	2300      	movs	r3, #0
 8000cd0:	623b      	str	r3, [r7, #32]
  GPIO_InitStruct.Pull = GPIO_NOPULL;
 8000cd2:	2300      	movs	r3, #0
 8000cd4:	627b      	str	r3, [r7, #36]	@ 0x24
  HAL_GPIO_Init(USB_OverCurrent_GPIO_Port, &GPIO_InitStruct);
 8000cd6:	f107 031c 	add.w	r3, r7, #28
 8000cda:	4619      	mov	r1, r3
 8000cdc:	4805      	ldr	r0, [pc, #20]	@ (8000cf4 <MX_GPIO_Init+0x154>)
 8000cde:	f000 fd3b 	bl	8001758 <HAL_GPIO_Init>

/* USER CODE BEGIN MX_GPIO_Init_2 */
/* USER CODE END MX_GPIO_Init_2 */
}
 8000ce2:	bf00      	nop
 8000ce4:	3730      	adds	r7, #48	@ 0x30
 8000ce6:	46bd      	mov	sp, r7
 8000ce8:	bd80      	pop	{r7, pc}
 8000cea:	bf00      	nop
 8000cec:	40023800 	.word	0x40023800
 8000cf0:	40020400 	.word	0x40020400
 8000cf4:	40021800 	.word	0x40021800
 8000cf8:	40020800 	.word	0x40020800

08000cfc <writeLedOn_GPIO>:
  * @brief GPIO Led on Function
  * @param led_t LDx
  * @retval None
  */
void writeLedOn_GPIO(led_t LDx)
{
 8000cfc:	b580      	push	{r7, lr}
 8000cfe:	b082      	sub	sp, #8
 8000d00:	af00      	add	r7, sp, #0
 8000d02:	4603      	mov	r3, r0
 8000d04:	80fb      	strh	r3, [r7, #6]
	HAL_GPIO_WritePin(GPIOB, LDx, GPIO_PIN_SET);
 8000d06:	88fb      	ldrh	r3, [r7, #6]
 8000d08:	2201      	movs	r2, #1
 8000d0a:	4619      	mov	r1, r3
 8000d0c:	4803      	ldr	r0, [pc, #12]	@ (8000d1c <writeLedOn_GPIO+0x20>)
 8000d0e:	f000 fecf 	bl	8001ab0 <HAL_GPIO_WritePin>
}
 8000d12:	bf00      	nop
 8000d14:	3708      	adds	r7, #8
 8000d16:	46bd      	mov	sp, r7
 8000d18:	bd80      	pop	{r7, pc}
 8000d1a:	bf00      	nop
 8000d1c:	40020400 	.word	0x40020400

08000d20 <writeLedOff_GPIO>:
  * @brief GPIO Led off Function
  * @param led_t LDx
  * @retval None
  */
void writeLedOff_GPIO(led_t LDx)
{
 8000d20:	b580      	push	{r7, lr}
 8000d22:	b082      	sub	sp, #8
 8000d24:	af00      	add	r7, sp, #0
 8000d26:	4603      	mov	r3, r0
 8000d28:	80fb      	strh	r3, [r7, #6]
	HAL_GPIO_WritePin(GPIOB, LDx, GPIO_PIN_RESET);
 8000d2a:	88fb      	ldrh	r3, [r7, #6]
 8000d2c:	2200      	movs	r2, #0
 8000d2e:	4619      	mov	r1, r3
 8000d30:	4803      	ldr	r0, [pc, #12]	@ (8000d40 <writeLedOff_GPIO+0x20>)
 8000d32:	f000 febd 	bl	8001ab0 <HAL_GPIO_WritePin>
}
 8000d36:	bf00      	nop
 8000d38:	3708      	adds	r7, #8
 8000d3a:	46bd      	mov	sp, r7
 8000d3c:	bd80      	pop	{r7, pc}
 8000d3e:	bf00      	nop
 8000d40:	40020400 	.word	0x40020400

08000d44 <delayInit>:
/**
  * @brief: FUNCION NO BLOQUEANTE
  * @param: none
  * @retval Button Status: La funcin actualiza las variables globales
  */
void delayInit(delay_t *delay, tick_t duration) {
 8000d44:	b480      	push	{r7}
 8000d46:	b083      	sub	sp, #12
 8000d48:	af00      	add	r7, sp, #0
 8000d4a:	6078      	str	r0, [r7, #4]
 8000d4c:	6039      	str	r1, [r7, #0]
    delay->startTime = 0;
 8000d4e:	687b      	ldr	r3, [r7, #4]
 8000d50:	2200      	movs	r2, #0
 8000d52:	601a      	str	r2, [r3, #0]
    delay->duration = duration;
 8000d54:	687b      	ldr	r3, [r7, #4]
 8000d56:	683a      	ldr	r2, [r7, #0]
 8000d58:	605a      	str	r2, [r3, #4]
    delay->running = false;
 8000d5a:	687b      	ldr	r3, [r7, #4]
 8000d5c:	2200      	movs	r2, #0
 8000d5e:	721a      	strb	r2, [r3, #8]
}
 8000d60:	bf00      	nop
 8000d62:	370c      	adds	r7, #12
 8000d64:	46bd      	mov	sp, r7
 8000d66:	f85d 7b04 	ldr.w	r7, [sp], #4
 8000d6a:	4770      	bx	lr

08000d6c <delayRead>:
bool_t delayRead(delay_t *delay) {
 8000d6c:	b580      	push	{r7, lr}
 8000d6e:	b082      	sub	sp, #8
 8000d70:	af00      	add	r7, sp, #0
 8000d72:	6078      	str	r0, [r7, #4]
    if (!delay->running) {
 8000d74:	687b      	ldr	r3, [r7, #4]
 8000d76:	7a1b      	ldrb	r3, [r3, #8]
 8000d78:	f083 0301 	eor.w	r3, r3, #1
 8000d7c:	b2db      	uxtb	r3, r3
 8000d7e:	2b00      	cmp	r3, #0
 8000d80:	d009      	beq.n	8000d96 <delayRead+0x2a>
        delay->startTime = HAL_GetTick();
 8000d82:	f000 f883 	bl	8000e8c <HAL_GetTick>
 8000d86:	4602      	mov	r2, r0
 8000d88:	687b      	ldr	r3, [r7, #4]
 8000d8a:	601a      	str	r2, [r3, #0]
        delay->running = true;
 8000d8c:	687b      	ldr	r3, [r7, #4]
 8000d8e:	2201      	movs	r2, #1
 8000d90:	721a      	strb	r2, [r3, #8]
        return false; // Retorna falso al iniciar el retardo
 8000d92:	2300      	movs	r3, #0
 8000d94:	e00f      	b.n	8000db6 <delayRead+0x4a>
            } else {
                if (HAL_GetTick() - delay->startTime >= delay->duration) {
 8000d96:	f000 f879 	bl	8000e8c <HAL_GetTick>
 8000d9a:	4602      	mov	r2, r0
 8000d9c:	687b      	ldr	r3, [r7, #4]
 8000d9e:	681b      	ldr	r3, [r3, #0]
 8000da0:	1ad2      	subs	r2, r2, r3
 8000da2:	687b      	ldr	r3, [r7, #4]
 8000da4:	685b      	ldr	r3, [r3, #4]
 8000da6:	429a      	cmp	r2, r3
 8000da8:	d304      	bcc.n	8000db4 <delayRead+0x48>
                    delay->running = false;
 8000daa:	687b      	ldr	r3, [r7, #4]
 8000dac:	2200      	movs	r2, #0
 8000dae:	721a      	strb	r2, [r3, #8]
                    return true; // Retorna verdadero al finalizar el retardo
 8000db0:	2301      	movs	r3, #1
 8000db2:	e000      	b.n	8000db6 <delayRead+0x4a>
                } else {
                    return false; // Retorna falso si el retardo an no ha finalizado
 8000db4:	2300      	movs	r3, #0
                }
            }
        }
 8000db6:	4618      	mov	r0, r3
 8000db8:	3708      	adds	r7, #8
 8000dba:	46bd      	mov	sp, r7
 8000dbc:	bd80      	pop	{r7, pc}
	...

08000dc0 <HAL_Init>:
  *         need to ensure that the SysTick time base is always set to 1 millisecond
  *         to have correct HAL operation.
  * @retval HAL status
  */
HAL_StatusTypeDef HAL_Init(void)
{
 8000dc0:	b580      	push	{r7, lr}
 8000dc2:	af00      	add	r7, sp, #0
  /* Configure Flash prefetch, Instruction cache, Data cache */ 
#if (INSTRUCTION_CACHE_ENABLE != 0U)
  __HAL_FLASH_INSTRUCTION_CACHE_ENABLE();
 8000dc4:	4b0e      	ldr	r3, [pc, #56]	@ (8000e00 <HAL_Init+0x40>)
 8000dc6:	681b      	ldr	r3, [r3, #0]
 8000dc8:	4a0d      	ldr	r2, [pc, #52]	@ (8000e00 <HAL_Init+0x40>)
 8000dca:	f443 7300 	orr.w	r3, r3, #512	@ 0x200
 8000dce:	6013      	str	r3, [r2, #0]
#endif /* INSTRUCTION_CACHE_ENABLE */

#if (DATA_CACHE_ENABLE != 0U)
  __HAL_FLASH_DATA_CACHE_ENABLE();
 8000dd0:	4b0b      	ldr	r3, [pc, #44]	@ (8000e00 <HAL_Init+0x40>)
 8000dd2:	681b      	ldr	r3, [r3, #0]
 8000dd4:	4a0a      	ldr	r2, [pc, #40]	@ (8000e00 <HAL_Init+0x40>)
 8000dd6:	f443 6380 	orr.w	r3, r3, #1024	@ 0x400
 8000dda:	6013      	str	r3, [r2, #0]
#endif /* DATA_CACHE_ENABLE */

#if (PREFETCH_ENABLE != 0U)
  __HAL_FLASH_PREFETCH_BUFFER_ENABLE();
 8000ddc:	4b08      	ldr	r3, [pc, #32]	@ (8000e00 <HAL_Init+0x40>)
 8000dde:	681b      	ldr	r3, [r3, #0]
 8000de0:	4a07      	ldr	r2, [pc, #28]	@ (8000e00 <HAL_Init+0x40>)
 8000de2:	f443 7380 	orr.w	r3, r3, #256	@ 0x100
 8000de6:	6013      	str	r3, [r2, #0]
#endif /* PREFETCH_ENABLE */

  /* Set Interrupt Group Priority */
  HAL_NVIC_SetPriorityGrouping(NVIC_PRIORITYGROUP_4);
 8000de8:	2003      	movs	r0, #3
 8000dea:	f000 f931 	bl	8001050 <HAL_NVIC_SetPriorityGrouping>

  /* Use systick as time base source and configure 1ms tick (default clock after Reset is HSI) */
  HAL_InitTick(TICK_INT_PRIORITY);
 8000dee:	2000      	movs	r0, #0
 8000df0:	f000 f808 	bl	8000e04 <HAL_InitTick>

  /* Init the low level hardware */
  HAL_MspInit();
 8000df4:	f7ff fcd8 	bl	80007a8 <HAL_MspInit>

  /* Return function status */
  return HAL_OK;
 8000df8:	2300      	movs	r3, #0
}
 8000dfa:	4618      	mov	r0, r3
 8000dfc:	bd80      	pop	{r7, pc}
 8000dfe:	bf00      	nop
 8000e00:	40023c00 	.word	0x40023c00

08000e04 <HAL_InitTick>:
  *       implementation  in user file.
  * @param TickPriority Tick interrupt priority.
  * @retval HAL status
  */
__weak HAL_StatusTypeDef HAL_InitTick(uint32_t TickPriority)
{
 8000e04:	b580      	push	{r7, lr}
 8000e06:	b082      	sub	sp, #8
 8000e08:	af00      	add	r7, sp, #0
 8000e0a:	6078      	str	r0, [r7, #4]
  /* Configure the SysTick to have interrupt in 1ms time basis*/
  if (HAL_SYSTICK_Config(SystemCoreClock / (1000U / uwTickFreq)) > 0U)
 8000e0c:	4b12      	ldr	r3, [pc, #72]	@ (8000e58 <HAL_InitTick+0x54>)
 8000e0e:	681a      	ldr	r2, [r3, #0]
 8000e10:	4b12      	ldr	r3, [pc, #72]	@ (8000e5c <HAL_InitTick+0x58>)
 8000e12:	781b      	ldrb	r3, [r3, #0]
 8000e14:	4619      	mov	r1, r3
 8000e16:	f44f 737a 	mov.w	r3, #1000	@ 0x3e8
 8000e1a:	fbb3 f3f1 	udiv	r3, r3, r1
 8000e1e:	fbb2 f3f3 	udiv	r3, r2, r3
 8000e22:	4618      	mov	r0, r3
 8000e24:	f000 f93b 	bl	800109e <HAL_SYSTICK_Config>
 8000e28:	4603      	mov	r3, r0
 8000e2a:	2b00      	cmp	r3, #0
 8000e2c:	d001      	beq.n	8000e32 <HAL_InitTick+0x2e>
  {
    return HAL_ERROR;
 8000e2e:	2301      	movs	r3, #1
 8000e30:	e00e      	b.n	8000e50 <HAL_InitTick+0x4c>
  }

  /* Configure the SysTick IRQ priority */
  if (TickPriority < (1UL << __NVIC_PRIO_BITS))
 8000e32:	687b      	ldr	r3, [r7, #4]
 8000e34:	2b0f      	cmp	r3, #15
 8000e36:	d80a      	bhi.n	8000e4e <HAL_InitTick+0x4a>
  {
    HAL_NVIC_SetPriority(SysTick_IRQn, TickPriority, 0U);
 8000e38:	2200      	movs	r2, #0
 8000e3a:	6879      	ldr	r1, [r7, #4]
 8000e3c:	f04f 30ff 	mov.w	r0, #4294967295
 8000e40:	f000 f911 	bl	8001066 <HAL_NVIC_SetPriority>
    uwTickPrio = TickPriority;
 8000e44:	4a06      	ldr	r2, [pc, #24]	@ (8000e60 <HAL_InitTick+0x5c>)
 8000e46:	687b      	ldr	r3, [r7, #4]
 8000e48:	6013      	str	r3, [r2, #0]
  {
    return HAL_ERROR;
  }

  /* Return function status */
  return HAL_OK;
 8000e4a:	2300      	movs	r3, #0
 8000e4c:	e000      	b.n	8000e50 <HAL_InitTick+0x4c>
    return HAL_ERROR;
 8000e4e:	2301      	movs	r3, #1
}
 8000e50:	4618      	mov	r0, r3
 8000e52:	3708      	adds	r7, #8
 8000e54:	46bd      	mov	sp, r7
 8000e56:	bd80      	pop	{r7, pc}
 8000e58:	20000000 	.word	0x20000000
 8000e5c:	20000008 	.word	0x20000008
 8000e60:	20000004 	.word	0x20000004

08000e64 <HAL_IncTick>:
 * @note This function is declared as __weak to be overwritten in case of other 
  *      implementations in user file.
  * @retval None
  */
__weak void HAL_IncTick(void)
{
 8000e64:	b480      	push	{r7}
 8000e66:	af00      	add	r7, sp, #0
  uwTick += uwTickFreq;
 8000e68:	4b06      	ldr	r3, [pc, #24]	@ (8000e84 <HAL_IncTick+0x20>)
 8000e6a:	781b      	ldrb	r3, [r3, #0]
 8000e6c:	461a      	mov	r2, r3
 8000e6e:	4b06      	ldr	r3, [pc, #24]	@ (8000e88 <HAL_IncTick+0x24>)
 8000e70:	681b      	ldr	r3, [r3, #0]
 8000e72:	4413      	add	r3, r2
 8000e74:	4a04      	ldr	r2, [pc, #16]	@ (8000e88 <HAL_IncTick+0x24>)
 8000e76:	6013      	str	r3, [r2, #0]
}
 8000e78:	bf00      	nop
 8000e7a:	46bd      	mov	sp, r7
 8000e7c:	f85d 7b04 	ldr.w	r7, [sp], #4
 8000e80:	4770      	bx	lr
 8000e82:	bf00      	nop
 8000e84:	20000008 	.word	0x20000008
 8000e88:	20000784 	.word	0x20000784

08000e8c <HAL_GetTick>:
  * @note This function is declared as __weak to be overwritten in case of other 
  *       implementations in user file.
  * @retval tick value
  */
__weak uint32_t HAL_GetTick(void)
{
 8000e8c:	b480      	push	{r7}
 8000e8e:	af00      	add	r7, sp, #0
  return uwTick;
 8000e90:	4b03      	ldr	r3, [pc, #12]	@ (8000ea0 <HAL_GetTick+0x14>)
 8000e92:	681b      	ldr	r3, [r3, #0]
}
 8000e94:	4618      	mov	r0, r3
 8000e96:	46bd      	mov	sp, r7
 8000e98:	f85d 7b04 	ldr.w	r7, [sp], #4
 8000e9c:	4770      	bx	lr
 8000e9e:	bf00      	nop
 8000ea0:	20000784 	.word	0x20000784

08000ea4 <HAL_Delay>:
  *       implementations in user file.
  * @param Delay specifies the delay time length, in milliseconds.
  * @retval None
  */
__weak void HAL_Delay(uint32_t Delay)
{
 8000ea4:	b580      	push	{r7, lr}
 8000ea6:	b084      	sub	sp, #16
 8000ea8:	af00      	add	r7, sp, #0
 8000eaa:	6078      	str	r0, [r7, #4]
  uint32_t tickstart = HAL_GetTick();
 8000eac:	f7ff ffee 	bl	8000e8c <HAL_GetTick>
 8000eb0:	60b8      	str	r0, [r7, #8]
  uint32_t wait = Delay;
 8000eb2:	687b      	ldr	r3, [r7, #4]
 8000eb4:	60fb      	str	r3, [r7, #12]

  /* Add a freq to guarantee minimum wait */
  if (wait < HAL_MAX_DELAY)
 8000eb6:	68fb      	ldr	r3, [r7, #12]
 8000eb8:	f1b3 3fff 	cmp.w	r3, #4294967295
 8000ebc:	d005      	beq.n	8000eca <HAL_Delay+0x26>
  {
    wait += (uint32_t)(uwTickFreq);
 8000ebe:	4b0a      	ldr	r3, [pc, #40]	@ (8000ee8 <HAL_Delay+0x44>)
 8000ec0:	781b      	ldrb	r3, [r3, #0]
 8000ec2:	461a      	mov	r2, r3
 8000ec4:	68fb      	ldr	r3, [r7, #12]
 8000ec6:	4413      	add	r3, r2
 8000ec8:	60fb      	str	r3, [r7, #12]
  }

  while((HAL_GetTick() - tickstart) < wait)
 8000eca:	bf00      	nop
 8000ecc:	f7ff ffde 	bl	8000e8c <HAL_GetTick>
 8000ed0:	4602      	mov	r2, r0
 8000ed2:	68bb      	ldr	r3, [r7, #8]
 8000ed4:	1ad3      	subs	r3, r2, r3
 8000ed6:	68fa      	ldr	r2, [r7, #12]
 8000ed8:	429a      	cmp	r2, r3
 8000eda:	d8f7      	bhi.n	8000ecc <HAL_Delay+0x28>
  {
  }
}
 8000edc:	bf00      	nop
 8000ede:	bf00      	nop
 8000ee0:	3710      	adds	r7, #16
 8000ee2:	46bd      	mov	sp, r7
 8000ee4:	bd80      	pop	{r7, pc}
 8000ee6:	bf00      	nop
 8000ee8:	20000008 	.word	0x20000008

08000eec <__NVIC_SetPriorityGrouping>:
           In case of a conflict between priority grouping and available
           priority bits (__NVIC_PRIO_BITS), the smallest possible priority group is set.
  \param [in]      PriorityGroup  Priority grouping field.
 */
__STATIC_INLINE void __NVIC_SetPriorityGrouping(uint32_t PriorityGroup)
{
 8000eec:	b480      	push	{r7}
 8000eee:	b085      	sub	sp, #20
 8000ef0:	af00      	add	r7, sp, #0
 8000ef2:	6078      	str	r0, [r7, #4]
  uint32_t reg_value;
  uint32_t PriorityGroupTmp = (PriorityGroup & (uint32_t)0x07UL);             /* only values 0..7 are used          */
 8000ef4:	687b      	ldr	r3, [r7, #4]
 8000ef6:	f003 0307 	and.w	r3, r3, #7
 8000efa:	60fb      	str	r3, [r7, #12]

  reg_value  =  SCB->AIRCR;                                                   /* read old register configuration    */
 8000efc:	4b0c      	ldr	r3, [pc, #48]	@ (8000f30 <__NVIC_SetPriorityGrouping+0x44>)
 8000efe:	68db      	ldr	r3, [r3, #12]
 8000f00:	60bb      	str	r3, [r7, #8]
  reg_value &= ~((uint32_t)(SCB_AIRCR_VECTKEY_Msk | SCB_AIRCR_PRIGROUP_Msk)); /* clear bits to change               */
 8000f02:	68ba      	ldr	r2, [r7, #8]
 8000f04:	f64f 03ff 	movw	r3, #63743	@ 0xf8ff
 8000f08:	4013      	ands	r3, r2
 8000f0a:	60bb      	str	r3, [r7, #8]
  reg_value  =  (reg_value                                   |
                ((uint32_t)0x5FAUL << SCB_AIRCR_VECTKEY_Pos) |
                (PriorityGroupTmp << SCB_AIRCR_PRIGROUP_Pos)  );              /* Insert write key and priority group */
 8000f0c:	68fb      	ldr	r3, [r7, #12]
 8000f0e:	021a      	lsls	r2, r3, #8
                ((uint32_t)0x5FAUL << SCB_AIRCR_VECTKEY_Pos) |
 8000f10:	68bb      	ldr	r3, [r7, #8]
 8000f12:	4313      	orrs	r3, r2
  reg_value  =  (reg_value                                   |
 8000f14:	f043 63bf 	orr.w	r3, r3, #100139008	@ 0x5f80000
 8000f18:	f443 3300 	orr.w	r3, r3, #131072	@ 0x20000
 8000f1c:	60bb      	str	r3, [r7, #8]
  SCB->AIRCR =  reg_value;
 8000f1e:	4a04      	ldr	r2, [pc, #16]	@ (8000f30 <__NVIC_SetPriorityGrouping+0x44>)
 8000f20:	68bb      	ldr	r3, [r7, #8]
 8000f22:	60d3      	str	r3, [r2, #12]
}
 8000f24:	bf00      	nop
 8000f26:	3714      	adds	r7, #20
 8000f28:	46bd      	mov	sp, r7
 8000f2a:	f85d 7b04 	ldr.w	r7, [sp], #4
 8000f2e:	4770      	bx	lr
 8000f30:	e000ed00 	.word	0xe000ed00

08000f34 <__NVIC_GetPriorityGrouping>:
  \brief   Get Priority Grouping
  \details Reads the priority grouping field from the NVIC Interrupt Controller.
  \return                Priority grouping field (SCB->AIRCR [10:8] PRIGROUP field).
 */
__STATIC_INLINE uint32_t __NVIC_GetPriorityGrouping(void)
{
 8000f34:	b480      	push	{r7}
 8000f36:	af00      	add	r7, sp, #0
  return ((uint32_t)((SCB->AIRCR & SCB_AIRCR_PRIGROUP_Msk) >> SCB_AIRCR_PRIGROUP_Pos));
 8000f38:	4b04      	ldr	r3, [pc, #16]	@ (8000f4c <__NVIC_GetPriorityGrouping+0x18>)
 8000f3a:	68db      	ldr	r3, [r3, #12]
 8000f3c:	0a1b      	lsrs	r3, r3, #8
 8000f3e:	f003 0307 	and.w	r3, r3, #7
}
 8000f42:	4618      	mov	r0, r3
 8000f44:	46bd      	mov	sp, r7
 8000f46:	f85d 7b04 	ldr.w	r7, [sp], #4
 8000f4a:	4770      	bx	lr
 8000f4c:	e000ed00 	.word	0xe000ed00

08000f50 <__NVIC_SetPriority>:
  \param [in]      IRQn  Interrupt number.
  \param [in]  priority  Priority to set.
  \note    The priority cannot be set for every processor exception.
 */
__STATIC_INLINE void __NVIC_SetPriority(IRQn_Type IRQn, uint32_t priority)
{
 8000f50:	b480      	push	{r7}
 8000f52:	b083      	sub	sp, #12
 8000f54:	af00      	add	r7, sp, #0
 8000f56:	4603      	mov	r3, r0
 8000f58:	6039      	str	r1, [r7, #0]
 8000f5a:	71fb      	strb	r3, [r7, #7]
  if ((int32_t)(IRQn) >= 0)
 8000f5c:	f997 3007 	ldrsb.w	r3, [r7, #7]
 8000f60:	2b00      	cmp	r3, #0
 8000f62:	db0a      	blt.n	8000f7a <__NVIC_SetPriority+0x2a>
  {
    NVIC->IP[((uint32_t)IRQn)]               = (uint8_t)((priority << (8U - __NVIC_PRIO_BITS)) & (uint32_t)0xFFUL);
 8000f64:	683b      	ldr	r3, [r7, #0]
 8000f66:	b2da      	uxtb	r2, r3
 8000f68:	490c      	ldr	r1, [pc, #48]	@ (8000f9c <__NVIC_SetPriority+0x4c>)
 8000f6a:	f997 3007 	ldrsb.w	r3, [r7, #7]
 8000f6e:	0112      	lsls	r2, r2, #4
 8000f70:	b2d2      	uxtb	r2, r2
 8000f72:	440b      	add	r3, r1
 8000f74:	f883 2300 	strb.w	r2, [r3, #768]	@ 0x300
  }
  else
  {
    SCB->SHP[(((uint32_t)IRQn) & 0xFUL)-4UL] = (uint8_t)((priority << (8U - __NVIC_PRIO_BITS)) & (uint32_t)0xFFUL);
  }
}
 8000f78:	e00a      	b.n	8000f90 <__NVIC_SetPriority+0x40>
    SCB->SHP[(((uint32_t)IRQn) & 0xFUL)-4UL] = (uint8_t)((priority << (8U - __NVIC_PRIO_BITS)) & (uint32_t)0xFFUL);
 8000f7a:	683b      	ldr	r3, [r7, #0]
 8000f7c:	b2da      	uxtb	r2, r3
 8000f7e:	4908      	ldr	r1, [pc, #32]	@ (8000fa0 <__NVIC_SetPriority+0x50>)
 8000f80:	79fb      	ldrb	r3, [r7, #7]
 8000f82:	f003 030f 	and.w	r3, r3, #15
 8000f86:	3b04      	subs	r3, #4
 8000f88:	0112      	lsls	r2, r2, #4
 8000f8a:	b2d2      	uxtb	r2, r2
 8000f8c:	440b      	add	r3, r1
 8000f8e:	761a      	strb	r2, [r3, #24]
}
 8000f90:	bf00      	nop
 8000f92:	370c      	adds	r7, #12
 8000f94:	46bd      	mov	sp, r7
 8000f96:	f85d 7b04 	ldr.w	r7, [sp], #4
 8000f9a:	4770      	bx	lr
 8000f9c:	e000e100 	.word	0xe000e100
 8000fa0:	e000ed00 	.word	0xe000ed00

08000fa4 <NVIC_EncodePriority>:
  \param [in]   PreemptPriority  Preemptive priority value (starting from 0).
  \param [in]       SubPriority  Subpriority value (starting from 0).
  \return                        Encoded priority. Value can be used in the function \ref NVIC_SetPriority().
 */
__STATIC_INLINE uint32_t NVIC_EncodePriority (uint32_t PriorityGroup, uint32_t PreemptPriority, uint32_t SubPriority)
{
 8000fa4:	b480      	push	{r7}
 8000fa6:	b089      	sub	sp, #36	@ 0x24
 8000fa8:	af00      	add	r7, sp, #0
 8000faa:	60f8      	str	r0, [r7, #12]
 8000fac:	60b9      	str	r1, [r7, #8]
 8000fae:	607a      	str	r2, [r7, #4]
  uint32_t PriorityGroupTmp = (PriorityGroup & (uint32_t)0x07UL);   /* only values 0..7 are used          */
 8000fb0:	68fb      	ldr	r3, [r7, #12]
 8000fb2:	f003 0307 	and.w	r3, r3, #7
 8000fb6:	61fb      	str	r3, [r7, #28]
  uint32_t PreemptPriorityBits;
  uint32_t SubPriorityBits;

  PreemptPriorityBits = ((7UL - PriorityGroupTmp) > (uint32_t)(__NVIC_PRIO_BITS)) ? (uint32_t)(__NVIC_PRIO_BITS) : (uint32_t)(7UL - PriorityGroupTmp);
 8000fb8:	69fb      	ldr	r3, [r7, #28]
 8000fba:	f1c3 0307 	rsb	r3, r3, #7
 8000fbe:	2b04      	cmp	r3, #4
 8000fc0:	bf28      	it	cs
 8000fc2:	2304      	movcs	r3, #4
 8000fc4:	61bb      	str	r3, [r7, #24]
  SubPriorityBits     = ((PriorityGroupTmp + (uint32_t)(__NVIC_PRIO_BITS)) < (uint32_t)7UL) ? (uint32_t)0UL : (uint32_t)((PriorityGroupTmp - 7UL) + (uint32_t)(__NVIC_PRIO_BITS));
 8000fc6:	69fb      	ldr	r3, [r7, #28]
 8000fc8:	3304      	adds	r3, #4
 8000fca:	2b06      	cmp	r3, #6
 8000fcc:	d902      	bls.n	8000fd4 <NVIC_EncodePriority+0x30>
 8000fce:	69fb      	ldr	r3, [r7, #28]
 8000fd0:	3b03      	subs	r3, #3
 8000fd2:	e000      	b.n	8000fd6 <NVIC_EncodePriority+0x32>
 8000fd4:	2300      	movs	r3, #0
 8000fd6:	617b      	str	r3, [r7, #20]

  return (
           ((PreemptPriority & (uint32_t)((1UL << (PreemptPriorityBits)) - 1UL)) << SubPriorityBits) |
 8000fd8:	f04f 32ff 	mov.w	r2, #4294967295
 8000fdc:	69bb      	ldr	r3, [r7, #24]
 8000fde:	fa02 f303 	lsl.w	r3, r2, r3
 8000fe2:	43da      	mvns	r2, r3
 8000fe4:	68bb      	ldr	r3, [r7, #8]
 8000fe6:	401a      	ands	r2, r3
 8000fe8:	697b      	ldr	r3, [r7, #20]
 8000fea:	409a      	lsls	r2, r3
           ((SubPriority     & (uint32_t)((1UL << (SubPriorityBits    )) - 1UL)))
 8000fec:	f04f 31ff 	mov.w	r1, #4294967295
 8000ff0:	697b      	ldr	r3, [r7, #20]
 8000ff2:	fa01 f303 	lsl.w	r3, r1, r3
 8000ff6:	43d9      	mvns	r1, r3
 8000ff8:	687b      	ldr	r3, [r7, #4]
 8000ffa:	400b      	ands	r3, r1
           ((PreemptPriority & (uint32_t)((1UL << (PreemptPriorityBits)) - 1UL)) << SubPriorityBits) |
 8000ffc:	4313      	orrs	r3, r2
         );
}
 8000ffe:	4618      	mov	r0, r3
 8001000:	3724      	adds	r7, #36	@ 0x24
 8001002:	46bd      	mov	sp, r7
 8001004:	f85d 7b04 	ldr.w	r7, [sp], #4
 8001008:	4770      	bx	lr
	...

0800100c <SysTick_Config>:
  \note    When the variable <b>__Vendor_SysTickConfig</b> is set to 1, then the
           function <b>SysTick_Config</b> is not included. In this case, the file <b><i>device</i>.h</b>
           must contain a vendor-specific implementation of this function.
 */
__STATIC_INLINE uint32_t SysTick_Config(uint32_t ticks)
{
 800100c:	b580      	push	{r7, lr}
 800100e:	b082      	sub	sp, #8
 8001010:	af00      	add	r7, sp, #0
 8001012:	6078      	str	r0, [r7, #4]
  if ((ticks - 1UL) > SysTick_LOAD_RELOAD_Msk)
 8001014:	687b      	ldr	r3, [r7, #4]
 8001016:	3b01      	subs	r3, #1
 8001018:	f1b3 7f80 	cmp.w	r3, #16777216	@ 0x1000000
 800101c:	d301      	bcc.n	8001022 <SysTick_Config+0x16>
  {
    return (1UL);                                                   /* Reload value impossible */
 800101e:	2301      	movs	r3, #1
 8001020:	e00f      	b.n	8001042 <SysTick_Config+0x36>
  }

  SysTick->LOAD  = (uint32_t)(ticks - 1UL);                         /* set reload register */
 8001022:	4a0a      	ldr	r2, [pc, #40]	@ (800104c <SysTick_Config+0x40>)
 8001024:	687b      	ldr	r3, [r7, #4]
 8001026:	3b01      	subs	r3, #1
 8001028:	6053      	str	r3, [r2, #4]
  NVIC_SetPriority (SysTick_IRQn, (1UL << __NVIC_PRIO_BITS) - 1UL); /* set Priority for Systick Interrupt */
 800102a:	210f      	movs	r1, #15
 800102c:	f04f 30ff 	mov.w	r0, #4294967295
 8001030:	f7ff ff8e 	bl	8000f50 <__NVIC_SetPriority>
  SysTick->VAL   = 0UL;                                             /* Load the SysTick Counter Value */
 8001034:	4b05      	ldr	r3, [pc, #20]	@ (800104c <SysTick_Config+0x40>)
 8001036:	2200      	movs	r2, #0
 8001038:	609a      	str	r2, [r3, #8]
  SysTick->CTRL  = SysTick_CTRL_CLKSOURCE_Msk |
 800103a:	4b04      	ldr	r3, [pc, #16]	@ (800104c <SysTick_Config+0x40>)
 800103c:	2207      	movs	r2, #7
 800103e:	601a      	str	r2, [r3, #0]
                   SysTick_CTRL_TICKINT_Msk   |
                   SysTick_CTRL_ENABLE_Msk;                         /* Enable SysTick IRQ and SysTick Timer */
  return (0UL);                                                     /* Function successful */
 8001040:	2300      	movs	r3, #0
}
 8001042:	4618      	mov	r0, r3
 8001044:	3708      	adds	r7, #8
 8001046:	46bd      	mov	sp, r7
 8001048:	bd80      	pop	{r7, pc}
 800104a:	bf00      	nop
 800104c:	e000e010 	.word	0xe000e010

08001050 <HAL_NVIC_SetPriorityGrouping>:
  * @note   When the NVIC_PriorityGroup_0 is selected, IRQ preemption is no more possible. 
  *         The pending IRQ priority will be managed only by the subpriority. 
  * @retval None
  */
void HAL_NVIC_SetPriorityGrouping(uint32_t PriorityGroup)
{
 8001050:	b580      	push	{r7, lr}
 8001052:	b082      	sub	sp, #8
 8001054:	af00      	add	r7, sp, #0
 8001056:	6078      	str	r0, [r7, #4]
  /* Check the parameters */
  assert_param(IS_NVIC_PRIORITY_GROUP(PriorityGroup));
  
  /* Set the PRIGROUP[10:8] bits according to the PriorityGroup parameter value */
  NVIC_SetPriorityGrouping(PriorityGroup);
 8001058:	6878      	ldr	r0, [r7, #4]
 800105a:	f7ff ff47 	bl	8000eec <__NVIC_SetPriorityGrouping>
}
 800105e:	bf00      	nop
 8001060:	3708      	adds	r7, #8
 8001062:	46bd      	mov	sp, r7
 8001064:	bd80      	pop	{r7, pc}

08001066 <HAL_NVIC_SetPriority>:
  *         This parameter can be a value between 0 and 15
  *         A lower priority value indicates a higher priority.          
  * @retval None
  */
void HAL_NVIC_SetPriority(IRQn_Type IRQn, uint32_t PreemptPriority, uint32_t SubPriority)
{ 
 8001066:	b580      	push	{r7, lr}
 8001068:	b086      	sub	sp, #24
 800106a:	af00      	add	r7, sp, #0
 800106c:	4603      	mov	r3, r0
 800106e:	60b9      	str	r1, [r7, #8]
 8001070:	607a      	str	r2, [r7, #4]
 8001072:	73fb      	strb	r3, [r7, #15]
  uint32_t prioritygroup = 0x00U;
 8001074:	2300      	movs	r3, #0
 8001076:	617b      	str	r3, [r7, #20]
  
  /* Check the parameters */
  assert_param(IS_NVIC_SUB_PRIORITY(SubPriority));
  assert_param(IS_NVIC_PREEMPTION_PRIORITY(PreemptPriority));
  
  prioritygroup = NVIC_GetPriorityGrouping();
 8001078:	f7ff ff5c 	bl	8000f34 <__NVIC_GetPriorityGrouping>
 800107c:	6178      	str	r0, [r7, #20]
  
  NVIC_SetPriority(IRQn, NVIC_EncodePriority(prioritygroup, PreemptPriority, SubPriority));
 800107e:	687a      	ldr	r2, [r7, #4]
 8001080:	68b9      	ldr	r1, [r7, #8]
 8001082:	6978      	ldr	r0, [r7, #20]
 8001084:	f7ff ff8e 	bl	8000fa4 <NVIC_EncodePriority>
 8001088:	4602      	mov	r2, r0
 800108a:	f997 300f 	ldrsb.w	r3, [r7, #15]
 800108e:	4611      	mov	r1, r2
 8001090:	4618      	mov	r0, r3
 8001092:	f7ff ff5d 	bl	8000f50 <__NVIC_SetPriority>
}
 8001096:	bf00      	nop
 8001098:	3718      	adds	r7, #24
 800109a:	46bd      	mov	sp, r7
 800109c:	bd80      	pop	{r7, pc}

0800109e <HAL_SYSTICK_Config>:
  * @param  TicksNumb Specifies the ticks Number of ticks between two interrupts.
  * @retval status:  - 0  Function succeeded.
  *                  - 1  Function failed.
  */
uint32_t HAL_SYSTICK_Config(uint32_t TicksNumb)
{
 800109e:	b580      	push	{r7, lr}
 80010a0:	b082      	sub	sp, #8
 80010a2:	af00      	add	r7, sp, #0
 80010a4:	6078      	str	r0, [r7, #4]
   return SysTick_Config(TicksNumb);
 80010a6:	6878      	ldr	r0, [r7, #4]
 80010a8:	f7ff ffb0 	bl	800100c <SysTick_Config>
 80010ac:	4603      	mov	r3, r0
}
 80010ae:	4618      	mov	r0, r3
 80010b0:	3708      	adds	r7, #8
 80010b2:	46bd      	mov	sp, r7
 80010b4:	bd80      	pop	{r7, pc}
	...

080010b8 <HAL_ETH_Init>:
  * @param  heth: pointer to a ETH_HandleTypeDef structure that contains
  *         the configuration information for ETHERNET module
  * @retval HAL status
  */
HAL_StatusTypeDef HAL_ETH_Init(ETH_HandleTypeDef *heth)
{
 80010b8:	b580      	push	{r7, lr}
 80010ba:	b084      	sub	sp, #16
 80010bc:	af00      	add	r7, sp, #0
 80010be:	6078      	str	r0, [r7, #4]
  uint32_t tickstart;

  if (heth == NULL)
 80010c0:	687b      	ldr	r3, [r7, #4]
 80010c2:	2b00      	cmp	r3, #0
 80010c4:	d101      	bne.n	80010ca <HAL_ETH_Init+0x12>
  {
    return HAL_ERROR;
 80010c6:	2301      	movs	r3, #1
 80010c8:	e08a      	b.n	80011e0 <HAL_ETH_Init+0x128>
  }
  if (heth->gState == HAL_ETH_STATE_RESET)
 80010ca:	687b      	ldr	r3, [r7, #4]
 80010cc:	f8d3 3084 	ldr.w	r3, [r3, #132]	@ 0x84
 80010d0:	2b00      	cmp	r3, #0
 80010d2:	d106      	bne.n	80010e2 <HAL_ETH_Init+0x2a>
  {
    heth->gState = HAL_ETH_STATE_BUSY;
 80010d4:	687b      	ldr	r3, [r7, #4]
 80010d6:	2223      	movs	r2, #35	@ 0x23
 80010d8:	f8c3 2084 	str.w	r2, [r3, #132]	@ 0x84

    /* Init the low level hardware */
    heth->MspInitCallback(heth);
#else
    /* Init the low level hardware : GPIO, CLOCK, NVIC. */
    HAL_ETH_MspInit(heth);
 80010dc:	6878      	ldr	r0, [r7, #4]
 80010de:	f7ff fb8b 	bl	80007f8 <HAL_ETH_MspInit>

#endif /* (USE_HAL_ETH_REGISTER_CALLBACKS) */
  }

  __HAL_RCC_SYSCFG_CLK_ENABLE();
 80010e2:	2300      	movs	r3, #0
 80010e4:	60bb      	str	r3, [r7, #8]
 80010e6:	4b40      	ldr	r3, [pc, #256]	@ (80011e8 <HAL_ETH_Init+0x130>)
 80010e8:	6c5b      	ldr	r3, [r3, #68]	@ 0x44
 80010ea:	4a3f      	ldr	r2, [pc, #252]	@ (80011e8 <HAL_ETH_Init+0x130>)
 80010ec:	f443 4380 	orr.w	r3, r3, #16384	@ 0x4000
 80010f0:	6453      	str	r3, [r2, #68]	@ 0x44
 80010f2:	4b3d      	ldr	r3, [pc, #244]	@ (80011e8 <HAL_ETH_Init+0x130>)
 80010f4:	6c5b      	ldr	r3, [r3, #68]	@ 0x44
 80010f6:	f403 4380 	and.w	r3, r3, #16384	@ 0x4000
 80010fa:	60bb      	str	r3, [r7, #8]
 80010fc:	68bb      	ldr	r3, [r7, #8]

  /* Select MII or RMII Mode*/
  SYSCFG->PMC &= ~(SYSCFG_PMC_MII_RMII_SEL);
 80010fe:	4b3b      	ldr	r3, [pc, #236]	@ (80011ec <HAL_ETH_Init+0x134>)
 8001100:	685b      	ldr	r3, [r3, #4]
 8001102:	4a3a      	ldr	r2, [pc, #232]	@ (80011ec <HAL_ETH_Init+0x134>)
 8001104:	f423 0300 	bic.w	r3, r3, #8388608	@ 0x800000
 8001108:	6053      	str	r3, [r2, #4]
  SYSCFG->PMC |= (uint32_t)heth->Init.MediaInterface;
 800110a:	4b38      	ldr	r3, [pc, #224]	@ (80011ec <HAL_ETH_Init+0x134>)
 800110c:	685a      	ldr	r2, [r3, #4]
 800110e:	687b      	ldr	r3, [r7, #4]
 8001110:	689b      	ldr	r3, [r3, #8]
 8001112:	4936      	ldr	r1, [pc, #216]	@ (80011ec <HAL_ETH_Init+0x134>)
 8001114:	4313      	orrs	r3, r2
 8001116:	604b      	str	r3, [r1, #4]
  /* Dummy read to sync SYSCFG with ETH */
  (void)SYSCFG->PMC;
 8001118:	4b34      	ldr	r3, [pc, #208]	@ (80011ec <HAL_ETH_Init+0x134>)
 800111a:	685b      	ldr	r3, [r3, #4]

  /* Ethernet Software reset */
  /* Set the SWR bit: resets all MAC subsystem internal registers and logic */
  /* After reset all the registers holds their respective reset values */
  SET_BIT(heth->Instance->DMABMR, ETH_DMABMR_SR);
 800111c:	687b      	ldr	r3, [r7, #4]
 800111e:	681b      	ldr	r3, [r3, #0]
 8001120:	f503 5380 	add.w	r3, r3, #4096	@ 0x1000
 8001124:	681b      	ldr	r3, [r3, #0]
 8001126:	687a      	ldr	r2, [r7, #4]
 8001128:	6812      	ldr	r2, [r2, #0]
 800112a:	f043 0301 	orr.w	r3, r3, #1
 800112e:	f502 5280 	add.w	r2, r2, #4096	@ 0x1000
 8001132:	6013      	str	r3, [r2, #0]

  /* Get tick */
  tickstart = HAL_GetTick();
 8001134:	f7ff feaa 	bl	8000e8c <HAL_GetTick>
 8001138:	60f8      	str	r0, [r7, #12]

  /* Wait for software reset */
  while (READ_BIT(heth->Instance->DMABMR, ETH_DMABMR_SR) > 0U)
 800113a:	e011      	b.n	8001160 <HAL_ETH_Init+0xa8>
  {
    if (((HAL_GetTick() - tickstart) > ETH_SWRESET_TIMEOUT))
 800113c:	f7ff fea6 	bl	8000e8c <HAL_GetTick>
 8001140:	4602      	mov	r2, r0
 8001142:	68fb      	ldr	r3, [r7, #12]
 8001144:	1ad3      	subs	r3, r2, r3
 8001146:	f5b3 7ffa 	cmp.w	r3, #500	@ 0x1f4
 800114a:	d909      	bls.n	8001160 <HAL_ETH_Init+0xa8>
    {
      /* Set Error Code */
      heth->ErrorCode = HAL_ETH_ERROR_TIMEOUT;
 800114c:	687b      	ldr	r3, [r7, #4]
 800114e:	2204      	movs	r2, #4
 8001150:	f8c3 2088 	str.w	r2, [r3, #136]	@ 0x88
      /* Set State as Error */
      heth->gState = HAL_ETH_STATE_ERROR;
 8001154:	687b      	ldr	r3, [r7, #4]
 8001156:	22e0      	movs	r2, #224	@ 0xe0
 8001158:	f8c3 2084 	str.w	r2, [r3, #132]	@ 0x84
      /* Return Error */
      return HAL_ERROR;
 800115c:	2301      	movs	r3, #1
 800115e:	e03f      	b.n	80011e0 <HAL_ETH_Init+0x128>
  while (READ_BIT(heth->Instance->DMABMR, ETH_DMABMR_SR) > 0U)
 8001160:	687b      	ldr	r3, [r7, #4]
 8001162:	681b      	ldr	r3, [r3, #0]
 8001164:	f503 5380 	add.w	r3, r3, #4096	@ 0x1000
 8001168:	681b      	ldr	r3, [r3, #0]
 800116a:	f003 0301 	and.w	r3, r3, #1
 800116e:	2b00      	cmp	r3, #0
 8001170:	d1e4      	bne.n	800113c <HAL_ETH_Init+0x84>
    }
  }


  /*------------------ MAC, MTL and DMA default Configuration ----------------*/
  ETH_MACDMAConfig(heth);
 8001172:	6878      	ldr	r0, [r7, #4]
 8001174:	f000 f97a 	bl	800146c <ETH_MACDMAConfig>


  /*------------------ DMA Tx Descriptors Configuration ----------------------*/
  ETH_DMATxDescListInit(heth);
 8001178:	6878      	ldr	r0, [r7, #4]
 800117a:	f000 fa25 	bl	80015c8 <ETH_DMATxDescListInit>

  /*------------------ DMA Rx Descriptors Configuration ----------------------*/
  ETH_DMARxDescListInit(heth);
 800117e:	6878      	ldr	r0, [r7, #4]
 8001180:	f000 fa7b 	bl	800167a <ETH_DMARxDescListInit>

  /*--------------------- ETHERNET MAC Address Configuration ------------------*/
  ETH_MACAddressConfig(heth, ETH_MAC_ADDRESS0, heth->Init.MACAddr);
 8001184:	687b      	ldr	r3, [r7, #4]
 8001186:	685b      	ldr	r3, [r3, #4]
 8001188:	461a      	mov	r2, r3
 800118a:	2100      	movs	r1, #0
 800118c:	6878      	ldr	r0, [r7, #4]
 800118e:	f000 f9e3 	bl	8001558 <ETH_MACAddressConfig>

  /* Disable MMC Interrupts */
  SET_BIT(heth->Instance->MACIMR, ETH_MACIMR_TSTIM | ETH_MACIMR_PMTIM);
 8001192:	687b      	ldr	r3, [r7, #4]
 8001194:	681b      	ldr	r3, [r3, #0]
 8001196:	6bda      	ldr	r2, [r3, #60]	@ 0x3c
 8001198:	687b      	ldr	r3, [r7, #4]
 800119a:	681b      	ldr	r3, [r3, #0]
 800119c:	f442 7202 	orr.w	r2, r2, #520	@ 0x208
 80011a0:	63da      	str	r2, [r3, #60]	@ 0x3c

  /* Disable Rx MMC Interrupts */
  SET_BIT(heth->Instance->MMCRIMR, ETH_MMCRIMR_RGUFM | ETH_MMCRIMR_RFAEM | \
 80011a2:	687b      	ldr	r3, [r7, #4]
 80011a4:	681b      	ldr	r3, [r3, #0]
 80011a6:	f8d3 310c 	ldr.w	r3, [r3, #268]	@ 0x10c
 80011aa:	687a      	ldr	r2, [r7, #4]
 80011ac:	6812      	ldr	r2, [r2, #0]
 80011ae:	f443 3300 	orr.w	r3, r3, #131072	@ 0x20000
 80011b2:	f043 0360 	orr.w	r3, r3, #96	@ 0x60
 80011b6:	f8c2 310c 	str.w	r3, [r2, #268]	@ 0x10c
          ETH_MMCRIMR_RFCEM);

  /* Disable Tx MMC Interrupts */
  SET_BIT(heth->Instance->MMCTIMR, ETH_MMCTIMR_TGFM | ETH_MMCTIMR_TGFMSCM | \
 80011ba:	687b      	ldr	r3, [r7, #4]
 80011bc:	681b      	ldr	r3, [r3, #0]
 80011be:	f8d3 2110 	ldr.w	r2, [r3, #272]	@ 0x110
 80011c2:	687b      	ldr	r3, [r7, #4]
 80011c4:	681b      	ldr	r3, [r3, #0]
 80011c6:	f442 1203 	orr.w	r2, r2, #2146304	@ 0x20c000
 80011ca:	f8c3 2110 	str.w	r2, [r3, #272]	@ 0x110
          ETH_MMCTIMR_TGFSCM);

  heth->ErrorCode = HAL_ETH_ERROR_NONE;
 80011ce:	687b      	ldr	r3, [r7, #4]
 80011d0:	2200      	movs	r2, #0
 80011d2:	f8c3 2088 	str.w	r2, [r3, #136]	@ 0x88
  heth->gState = HAL_ETH_STATE_READY;
 80011d6:	687b      	ldr	r3, [r7, #4]
 80011d8:	2210      	movs	r2, #16
 80011da:	f8c3 2084 	str.w	r2, [r3, #132]	@ 0x84

  return HAL_OK;
 80011de:	2300      	movs	r3, #0
}
 80011e0:	4618      	mov	r0, r3
 80011e2:	3710      	adds	r7, #16
 80011e4:	46bd      	mov	sp, r7
 80011e6:	bd80      	pop	{r7, pc}
 80011e8:	40023800 	.word	0x40023800
 80011ec:	40013800 	.word	0x40013800

080011f0 <ETH_SetMACConfig>:
  HAL_Delay(ETH_REG_WRITE_DELAY);
  (heth->Instance)->DMAOMR = tmpreg;
}

static void ETH_SetMACConfig(ETH_HandleTypeDef *heth, const ETH_MACConfigTypeDef *macconf)
{
 80011f0:	b580      	push	{r7, lr}
 80011f2:	b084      	sub	sp, #16
 80011f4:	af00      	add	r7, sp, #0
 80011f6:	6078      	str	r0, [r7, #4]
 80011f8:	6039      	str	r1, [r7, #0]
  uint32_t tmpreg1;

  /*------------------------ ETHERNET MACCR Configuration --------------------*/
  /* Get the ETHERNET MACCR value */
  tmpreg1 = (heth->Instance)->MACCR;
 80011fa:	687b      	ldr	r3, [r7, #4]
 80011fc:	681b      	ldr	r3, [r3, #0]
 80011fe:	681b      	ldr	r3, [r3, #0]
 8001200:	60fb      	str	r3, [r7, #12]
  /* Clear CSTF, WD, PCE, PS, TE and RE bits */
  tmpreg1 &= ETH_MACCR_CLEAR_MASK;
 8001202:	68fa      	ldr	r2, [r7, #12]
 8001204:	4b53      	ldr	r3, [pc, #332]	@ (8001354 <ETH_SetMACConfig+0x164>)
 8001206:	4013      	ands	r3, r2
 8001208:	60fb      	str	r3, [r7, #12]

  tmpreg1 |= (uint32_t)(((uint32_t)macconf->CRCStripTypePacket << 25U) |
 800120a:	683b      	ldr	r3, [r7, #0]
 800120c:	7b9b      	ldrb	r3, [r3, #14]
 800120e:	065b      	lsls	r3, r3, #25
                        ((uint32_t)((macconf->Watchdog == DISABLE) ? 1U : 0U) << 23U) |
 8001210:	683a      	ldr	r2, [r7, #0]
 8001212:	7c12      	ldrb	r2, [r2, #16]
 8001214:	2a00      	cmp	r2, #0
 8001216:	d102      	bne.n	800121e <ETH_SetMACConfig+0x2e>
 8001218:	f44f 0200 	mov.w	r2, #8388608	@ 0x800000
 800121c:	e000      	b.n	8001220 <ETH_SetMACConfig+0x30>
 800121e:	2200      	movs	r2, #0
  tmpreg1 |= (uint32_t)(((uint32_t)macconf->CRCStripTypePacket << 25U) |
 8001220:	4313      	orrs	r3, r2
                        ((uint32_t)((macconf->Jabber == DISABLE) ? 1U : 0U) << 22U) |
 8001222:	683a      	ldr	r2, [r7, #0]
 8001224:	7c52      	ldrb	r2, [r2, #17]
 8001226:	2a00      	cmp	r2, #0
 8001228:	d102      	bne.n	8001230 <ETH_SetMACConfig+0x40>
 800122a:	f44f 0280 	mov.w	r2, #4194304	@ 0x400000
 800122e:	e000      	b.n	8001232 <ETH_SetMACConfig+0x42>
 8001230:	2200      	movs	r2, #0
                        ((uint32_t)((macconf->Watchdog == DISABLE) ? 1U : 0U) << 23U) |
 8001232:	431a      	orrs	r2, r3
                        (uint32_t)macconf->InterPacketGapVal |
 8001234:	683b      	ldr	r3, [r7, #0]
 8001236:	689b      	ldr	r3, [r3, #8]
                        ((uint32_t)((macconf->Jabber == DISABLE) ? 1U : 0U) << 22U) |
 8001238:	431a      	orrs	r2, r3
                        ((uint32_t)macconf->CarrierSenseDuringTransmit << 16U) |
 800123a:	683b      	ldr	r3, [r7, #0]
 800123c:	7fdb      	ldrb	r3, [r3, #31]
 800123e:	041b      	lsls	r3, r3, #16
                        (uint32_t)macconf->InterPacketGapVal |
 8001240:	431a      	orrs	r2, r3
                        macconf->Speed |
 8001242:	683b      	ldr	r3, [r7, #0]
 8001244:	695b      	ldr	r3, [r3, #20]
                        ((uint32_t)macconf->CarrierSenseDuringTransmit << 16U) |
 8001246:	4313      	orrs	r3, r2
                        ((uint32_t)((macconf->ReceiveOwn == DISABLE) ? 1U : 0U) << 13U) |
 8001248:	683a      	ldr	r2, [r7, #0]
 800124a:	7f92      	ldrb	r2, [r2, #30]
 800124c:	2a00      	cmp	r2, #0
 800124e:	d102      	bne.n	8001256 <ETH_SetMACConfig+0x66>
 8001250:	f44f 5200 	mov.w	r2, #8192	@ 0x2000
 8001254:	e000      	b.n	8001258 <ETH_SetMACConfig+0x68>
 8001256:	2200      	movs	r2, #0
                        macconf->Speed |
 8001258:	431a      	orrs	r2, r3
                        ((uint32_t)macconf->LoopbackMode << 12U) |
 800125a:	683b      	ldr	r3, [r7, #0]
 800125c:	7f1b      	ldrb	r3, [r3, #28]
 800125e:	031b      	lsls	r3, r3, #12
                        ((uint32_t)((macconf->ReceiveOwn == DISABLE) ? 1U : 0U) << 13U) |
 8001260:	431a      	orrs	r2, r3
                        macconf->DuplexMode |
 8001262:	683b      	ldr	r3, [r7, #0]
 8001264:	699b      	ldr	r3, [r3, #24]
                        ((uint32_t)macconf->LoopbackMode << 12U) |
 8001266:	431a      	orrs	r2, r3
                        ((uint32_t)macconf->ChecksumOffload << 10U) |
 8001268:	683b      	ldr	r3, [r7, #0]
 800126a:	791b      	ldrb	r3, [r3, #4]
 800126c:	029b      	lsls	r3, r3, #10
                        macconf->DuplexMode |
 800126e:	4313      	orrs	r3, r2
                        ((uint32_t)((macconf->RetryTransmission == DISABLE) ? 1U : 0U) << 9U) |
 8001270:	683a      	ldr	r2, [r7, #0]
 8001272:	f892 2020 	ldrb.w	r2, [r2, #32]
 8001276:	2a00      	cmp	r2, #0
 8001278:	d102      	bne.n	8001280 <ETH_SetMACConfig+0x90>
 800127a:	f44f 7200 	mov.w	r2, #512	@ 0x200
 800127e:	e000      	b.n	8001282 <ETH_SetMACConfig+0x92>
 8001280:	2200      	movs	r2, #0
                        ((uint32_t)macconf->ChecksumOffload << 10U) |
 8001282:	431a      	orrs	r2, r3
                        ((uint32_t)macconf->AutomaticPadCRCStrip << 7U) |
 8001284:	683b      	ldr	r3, [r7, #0]
 8001286:	7bdb      	ldrb	r3, [r3, #15]
 8001288:	01db      	lsls	r3, r3, #7
                        ((uint32_t)((macconf->RetryTransmission == DISABLE) ? 1U : 0U) << 9U) |
 800128a:	431a      	orrs	r2, r3
                        macconf->BackOffLimit |
 800128c:	683b      	ldr	r3, [r7, #0]
 800128e:	6a5b      	ldr	r3, [r3, #36]	@ 0x24
                        ((uint32_t)macconf->AutomaticPadCRCStrip << 7U) |
 8001290:	431a      	orrs	r2, r3
                        ((uint32_t)macconf->DeferralCheck << 4U));
 8001292:	683b      	ldr	r3, [r7, #0]
 8001294:	f893 3028 	ldrb.w	r3, [r3, #40]	@ 0x28
 8001298:	011b      	lsls	r3, r3, #4
  tmpreg1 |= (uint32_t)(((uint32_t)macconf->CRCStripTypePacket << 25U) |
 800129a:	4313      	orrs	r3, r2
 800129c:	68fa      	ldr	r2, [r7, #12]
 800129e:	4313      	orrs	r3, r2
 80012a0:	60fb      	str	r3, [r7, #12]

  /* Write to ETHERNET MACCR */
  (heth->Instance)->MACCR = (uint32_t)tmpreg1;
 80012a2:	687b      	ldr	r3, [r7, #4]
 80012a4:	681b      	ldr	r3, [r3, #0]
 80012a6:	68fa      	ldr	r2, [r7, #12]
 80012a8:	601a      	str	r2, [r3, #0]

  /* Wait until the write operation will be taken into account :
  at least four TX_CLK/RX_CLK clock cycles */
  tmpreg1 = (heth->Instance)->MACCR;
 80012aa:	687b      	ldr	r3, [r7, #4]
 80012ac:	681b      	ldr	r3, [r3, #0]
 80012ae:	681b      	ldr	r3, [r3, #0]
 80012b0:	60fb      	str	r3, [r7, #12]
  HAL_Delay(ETH_REG_WRITE_DELAY);
 80012b2:	2001      	movs	r0, #1
 80012b4:	f7ff fdf6 	bl	8000ea4 <HAL_Delay>
  (heth->Instance)->MACCR = tmpreg1;
 80012b8:	687b      	ldr	r3, [r7, #4]
 80012ba:	681b      	ldr	r3, [r3, #0]
 80012bc:	68fa      	ldr	r2, [r7, #12]
 80012be:	601a      	str	r2, [r3, #0]

  /*----------------------- ETHERNET MACFCR Configuration --------------------*/

  /* Get the ETHERNET MACFCR value */
  tmpreg1 = (heth->Instance)->MACFCR;
 80012c0:	687b      	ldr	r3, [r7, #4]
 80012c2:	681b      	ldr	r3, [r3, #0]
 80012c4:	699b      	ldr	r3, [r3, #24]
 80012c6:	60fb      	str	r3, [r7, #12]
  /* Clear xx bits */
  tmpreg1 &= ETH_MACFCR_CLEAR_MASK;
 80012c8:	68fa      	ldr	r2, [r7, #12]
 80012ca:	f64f 7341 	movw	r3, #65345	@ 0xff41
 80012ce:	4013      	ands	r3, r2
 80012d0:	60fb      	str	r3, [r7, #12]

  tmpreg1 |= (uint32_t)((macconf->PauseTime << 16U) |
 80012d2:	683b      	ldr	r3, [r7, #0]
 80012d4:	6c9b      	ldr	r3, [r3, #72]	@ 0x48
 80012d6:	041b      	lsls	r3, r3, #16
                        ((uint32_t)((macconf->ZeroQuantaPause == DISABLE) ? 1U : 0U) << 7U) |
 80012d8:	683a      	ldr	r2, [r7, #0]
 80012da:	f892 204c 	ldrb.w	r2, [r2, #76]	@ 0x4c
 80012de:	2a00      	cmp	r2, #0
 80012e0:	d101      	bne.n	80012e6 <ETH_SetMACConfig+0xf6>
 80012e2:	2280      	movs	r2, #128	@ 0x80
 80012e4:	e000      	b.n	80012e8 <ETH_SetMACConfig+0xf8>
 80012e6:	2200      	movs	r2, #0
  tmpreg1 |= (uint32_t)((macconf->PauseTime << 16U) |
 80012e8:	431a      	orrs	r2, r3
                        macconf->PauseLowThreshold |
 80012ea:	683b      	ldr	r3, [r7, #0]
 80012ec:	6d1b      	ldr	r3, [r3, #80]	@ 0x50
                        ((uint32_t)((macconf->ZeroQuantaPause == DISABLE) ? 1U : 0U) << 7U) |
 80012ee:	4313      	orrs	r3, r2
                        ((uint32_t)((macconf->UnicastPausePacketDetect == ENABLE) ? 1U : 0U) << 3U) |
 80012f0:	683a      	ldr	r2, [r7, #0]
 80012f2:	f892 2055 	ldrb.w	r2, [r2, #85]	@ 0x55
 80012f6:	2a01      	cmp	r2, #1
 80012f8:	d101      	bne.n	80012fe <ETH_SetMACConfig+0x10e>
 80012fa:	2208      	movs	r2, #8
 80012fc:	e000      	b.n	8001300 <ETH_SetMACConfig+0x110>
 80012fe:	2200      	movs	r2, #0
                        macconf->PauseLowThreshold |
 8001300:	4313      	orrs	r3, r2
                        ((uint32_t)((macconf->ReceiveFlowControl == ENABLE) ? 1U : 0U) << 2U) |
 8001302:	683a      	ldr	r2, [r7, #0]
 8001304:	f892 2056 	ldrb.w	r2, [r2, #86]	@ 0x56
 8001308:	2a01      	cmp	r2, #1
 800130a:	d101      	bne.n	8001310 <ETH_SetMACConfig+0x120>
 800130c:	2204      	movs	r2, #4
 800130e:	e000      	b.n	8001312 <ETH_SetMACConfig+0x122>
 8001310:	2200      	movs	r2, #0
                        ((uint32_t)((macconf->UnicastPausePacketDetect == ENABLE) ? 1U : 0U) << 3U) |
 8001312:	4313      	orrs	r3, r2
                        ((uint32_t)((macconf->TransmitFlowControl == ENABLE) ? 1U : 0U) << 1U));
 8001314:	683a      	ldr	r2, [r7, #0]
 8001316:	f892 2054 	ldrb.w	r2, [r2, #84]	@ 0x54
 800131a:	2a01      	cmp	r2, #1
 800131c:	d101      	bne.n	8001322 <ETH_SetMACConfig+0x132>
 800131e:	2202      	movs	r2, #2
 8001320:	e000      	b.n	8001324 <ETH_SetMACConfig+0x134>
 8001322:	2200      	movs	r2, #0
  tmpreg1 |= (uint32_t)((macconf->PauseTime << 16U) |
 8001324:	4313      	orrs	r3, r2
 8001326:	68fa      	ldr	r2, [r7, #12]
 8001328:	4313      	orrs	r3, r2
 800132a:	60fb      	str	r3, [r7, #12]

  /* Write to ETHERNET MACFCR */
  (heth->Instance)->MACFCR = (uint32_t)tmpreg1;
 800132c:	687b      	ldr	r3, [r7, #4]
 800132e:	681b      	ldr	r3, [r3, #0]
 8001330:	68fa      	ldr	r2, [r7, #12]
 8001332:	619a      	str	r2, [r3, #24]

  /* Wait until the write operation will be taken into account :
  at least four TX_CLK/RX_CLK clock cycles */
  tmpreg1 = (heth->Instance)->MACFCR;
 8001334:	687b      	ldr	r3, [r7, #4]
 8001336:	681b      	ldr	r3, [r3, #0]
 8001338:	699b      	ldr	r3, [r3, #24]
 800133a:	60fb      	str	r3, [r7, #12]
  HAL_Delay(ETH_REG_WRITE_DELAY);
 800133c:	2001      	movs	r0, #1
 800133e:	f7ff fdb1 	bl	8000ea4 <HAL_Delay>
  (heth->Instance)->MACFCR = tmpreg1;
 8001342:	687b      	ldr	r3, [r7, #4]
 8001344:	681b      	ldr	r3, [r3, #0]
 8001346:	68fa      	ldr	r2, [r7, #12]
 8001348:	619a      	str	r2, [r3, #24]
}
 800134a:	bf00      	nop
 800134c:	3710      	adds	r7, #16
 800134e:	46bd      	mov	sp, r7
 8001350:	bd80      	pop	{r7, pc}
 8001352:	bf00      	nop
 8001354:	fd20810f 	.word	0xfd20810f

08001358 <ETH_SetDMAConfig>:

static void ETH_SetDMAConfig(ETH_HandleTypeDef *heth, const ETH_DMAConfigTypeDef *dmaconf)
{
 8001358:	b580      	push	{r7, lr}
 800135a:	b084      	sub	sp, #16
 800135c:	af00      	add	r7, sp, #0
 800135e:	6078      	str	r0, [r7, #4]
 8001360:	6039      	str	r1, [r7, #0]
  uint32_t tmpreg1;

  /*----------------------- ETHERNET DMAOMR Configuration --------------------*/
  /* Get the ETHERNET DMAOMR value */
  tmpreg1 = (heth->Instance)->DMAOMR;
 8001362:	687b      	ldr	r3, [r7, #4]
 8001364:	681b      	ldr	r3, [r3, #0]
 8001366:	f503 5380 	add.w	r3, r3, #4096	@ 0x1000
 800136a:	699b      	ldr	r3, [r3, #24]
 800136c:	60fb      	str	r3, [r7, #12]
  /* Clear xx bits */
  tmpreg1 &= ETH_DMAOMR_CLEAR_MASK;
 800136e:	68fa      	ldr	r2, [r7, #12]
 8001370:	4b3d      	ldr	r3, [pc, #244]	@ (8001468 <ETH_SetDMAConfig+0x110>)
 8001372:	4013      	ands	r3, r2
 8001374:	60fb      	str	r3, [r7, #12]

  tmpreg1 |= (uint32_t)(((uint32_t)((dmaconf->DropTCPIPChecksumErrorFrame == DISABLE) ? 1U : 0U) << 26U) |
 8001376:	683b      	ldr	r3, [r7, #0]
 8001378:	7b1b      	ldrb	r3, [r3, #12]
 800137a:	2b00      	cmp	r3, #0
 800137c:	d102      	bne.n	8001384 <ETH_SetDMAConfig+0x2c>
 800137e:	f04f 6280 	mov.w	r2, #67108864	@ 0x4000000
 8001382:	e000      	b.n	8001386 <ETH_SetDMAConfig+0x2e>
 8001384:	2200      	movs	r2, #0
                        ((uint32_t)dmaconf->ReceiveStoreForward << 25U) |
 8001386:	683b      	ldr	r3, [r7, #0]
 8001388:	7b5b      	ldrb	r3, [r3, #13]
 800138a:	065b      	lsls	r3, r3, #25
  tmpreg1 |= (uint32_t)(((uint32_t)((dmaconf->DropTCPIPChecksumErrorFrame == DISABLE) ? 1U : 0U) << 26U) |
 800138c:	4313      	orrs	r3, r2
                        ((uint32_t)((dmaconf->FlushRxPacket == DISABLE) ? 1U : 0U) << 20U) |
 800138e:	683a      	ldr	r2, [r7, #0]
 8001390:	7f52      	ldrb	r2, [r2, #29]
 8001392:	2a00      	cmp	r2, #0
 8001394:	d102      	bne.n	800139c <ETH_SetDMAConfig+0x44>
 8001396:	f44f 1280 	mov.w	r2, #1048576	@ 0x100000
 800139a:	e000      	b.n	800139e <ETH_SetDMAConfig+0x46>
 800139c:	2200      	movs	r2, #0
                        ((uint32_t)dmaconf->ReceiveStoreForward << 25U) |
 800139e:	431a      	orrs	r2, r3
                        ((uint32_t)dmaconf->TransmitStoreForward << 21U) |
 80013a0:	683b      	ldr	r3, [r7, #0]
 80013a2:	7b9b      	ldrb	r3, [r3, #14]
 80013a4:	055b      	lsls	r3, r3, #21
                        ((uint32_t)((dmaconf->FlushRxPacket == DISABLE) ? 1U : 0U) << 20U) |
 80013a6:	431a      	orrs	r2, r3
                        dmaconf->TransmitThresholdControl |
 80013a8:	683b      	ldr	r3, [r7, #0]
 80013aa:	695b      	ldr	r3, [r3, #20]
                        ((uint32_t)dmaconf->TransmitStoreForward << 21U) |
 80013ac:	431a      	orrs	r2, r3
                        ((uint32_t)dmaconf->ForwardErrorFrames << 7U) |
 80013ae:	683b      	ldr	r3, [r7, #0]
 80013b0:	7f1b      	ldrb	r3, [r3, #28]
 80013b2:	01db      	lsls	r3, r3, #7
                        dmaconf->TransmitThresholdControl |
 80013b4:	431a      	orrs	r2, r3
                        ((uint32_t)dmaconf->ForwardUndersizedGoodFrames << 6U) |
 80013b6:	683b      	ldr	r3, [r7, #0]
 80013b8:	7f9b      	ldrb	r3, [r3, #30]
 80013ba:	019b      	lsls	r3, r3, #6
                        ((uint32_t)dmaconf->ForwardErrorFrames << 7U) |
 80013bc:	431a      	orrs	r2, r3
                        dmaconf->ReceiveThresholdControl |
 80013be:	683b      	ldr	r3, [r7, #0]
 80013c0:	6a1b      	ldr	r3, [r3, #32]
                        ((uint32_t)dmaconf->ForwardUndersizedGoodFrames << 6U) |
 80013c2:	431a      	orrs	r2, r3
                        ((uint32_t)dmaconf->SecondFrameOperate << 2U));
 80013c4:	683b      	ldr	r3, [r7, #0]
 80013c6:	f893 3024 	ldrb.w	r3, [r3, #36]	@ 0x24
 80013ca:	009b      	lsls	r3, r3, #2
  tmpreg1 |= (uint32_t)(((uint32_t)((dmaconf->DropTCPIPChecksumErrorFrame == DISABLE) ? 1U : 0U) << 26U) |
 80013cc:	4313      	orrs	r3, r2
 80013ce:	68fa      	ldr	r2, [r7, #12]
 80013d0:	4313      	orrs	r3, r2
 80013d2:	60fb      	str	r3, [r7, #12]

  /* Write to ETHERNET DMAOMR */
  (heth->Instance)->DMAOMR = (uint32_t)tmpreg1;
 80013d4:	687b      	ldr	r3, [r7, #4]
 80013d6:	681b      	ldr	r3, [r3, #0]
 80013d8:	f503 5380 	add.w	r3, r3, #4096	@ 0x1000
 80013dc:	461a      	mov	r2, r3
 80013de:	68fb      	ldr	r3, [r7, #12]
 80013e0:	6193      	str	r3, [r2, #24]

  /* Wait until the write operation will be taken into account:
  at least four TX_CLK/RX_CLK clock cycles */
  tmpreg1 = (heth->Instance)->DMAOMR;
 80013e2:	687b      	ldr	r3, [r7, #4]
 80013e4:	681b      	ldr	r3, [r3, #0]
 80013e6:	f503 5380 	add.w	r3, r3, #4096	@ 0x1000
 80013ea:	699b      	ldr	r3, [r3, #24]
 80013ec:	60fb      	str	r3, [r7, #12]
  HAL_Delay(ETH_REG_WRITE_DELAY);
 80013ee:	2001      	movs	r0, #1
 80013f0:	f7ff fd58 	bl	8000ea4 <HAL_Delay>
  (heth->Instance)->DMAOMR = tmpreg1;
 80013f4:	687b      	ldr	r3, [r7, #4]
 80013f6:	681b      	ldr	r3, [r3, #0]
 80013f8:	f503 5380 	add.w	r3, r3, #4096	@ 0x1000
 80013fc:	461a      	mov	r2, r3
 80013fe:	68fb      	ldr	r3, [r7, #12]
 8001400:	6193      	str	r3, [r2, #24]

  /*----------------------- ETHERNET DMABMR Configuration --------------------*/
  (heth->Instance)->DMABMR = (uint32_t)(((uint32_t)dmaconf->AddressAlignedBeats << 25U) |
 8001402:	683b      	ldr	r3, [r7, #0]
 8001404:	791b      	ldrb	r3, [r3, #4]
 8001406:	065a      	lsls	r2, r3, #25
                                        dmaconf->BurstMode |
 8001408:	683b      	ldr	r3, [r7, #0]
 800140a:	689b      	ldr	r3, [r3, #8]
  (heth->Instance)->DMABMR = (uint32_t)(((uint32_t)dmaconf->AddressAlignedBeats << 25U) |
 800140c:	431a      	orrs	r2, r3
                                        dmaconf->RxDMABurstLength | /* !! if 4xPBL is selected for Tx or
 800140e:	683b      	ldr	r3, [r7, #0]
 8001410:	699b      	ldr	r3, [r3, #24]
                                        dmaconf->BurstMode |
 8001412:	431a      	orrs	r2, r3
                                                                       Rx it is applied for the other */
                                        dmaconf->TxDMABurstLength |
 8001414:	683b      	ldr	r3, [r7, #0]
 8001416:	691b      	ldr	r3, [r3, #16]
                                        dmaconf->RxDMABurstLength | /* !! if 4xPBL is selected for Tx or
 8001418:	431a      	orrs	r2, r3
                                        ((uint32_t)dmaconf->EnhancedDescriptorFormat << 7U) |
 800141a:	683b      	ldr	r3, [r7, #0]
 800141c:	f893 3025 	ldrb.w	r3, [r3, #37]	@ 0x25
 8001420:	01db      	lsls	r3, r3, #7
                                        dmaconf->TxDMABurstLength |
 8001422:	431a      	orrs	r2, r3
                                        (dmaconf->DescriptorSkipLength << 2U) |
 8001424:	683b      	ldr	r3, [r7, #0]
 8001426:	6a9b      	ldr	r3, [r3, #40]	@ 0x28
 8001428:	009b      	lsls	r3, r3, #2
                                        ((uint32_t)dmaconf->EnhancedDescriptorFormat << 7U) |
 800142a:	431a      	orrs	r2, r3
                                        dmaconf->DMAArbitration |
 800142c:	683b      	ldr	r3, [r7, #0]
 800142e:	681b      	ldr	r3, [r3, #0]
                                        (dmaconf->DescriptorSkipLength << 2U) |
 8001430:	4313      	orrs	r3, r2
  (heth->Instance)->DMABMR = (uint32_t)(((uint32_t)dmaconf->AddressAlignedBeats << 25U) |
 8001432:	687a      	ldr	r2, [r7, #4]
 8001434:	6812      	ldr	r2, [r2, #0]
 8001436:	f443 0300 	orr.w	r3, r3, #8388608	@ 0x800000
 800143a:	f502 5280 	add.w	r2, r2, #4096	@ 0x1000
 800143e:	6013      	str	r3, [r2, #0]
                                        ETH_DMABMR_USP); /* Enable use of separate PBL for Rx and Tx */

  /* Wait until the write operation will be taken into account:
     at least four TX_CLK/RX_CLK clock cycles */
  tmpreg1 = (heth->Instance)->DMABMR;
 8001440:	687b      	ldr	r3, [r7, #4]
 8001442:	681b      	ldr	r3, [r3, #0]
 8001444:	f503 5380 	add.w	r3, r3, #4096	@ 0x1000
 8001448:	681b      	ldr	r3, [r3, #0]
 800144a:	60fb      	str	r3, [r7, #12]
  HAL_Delay(ETH_REG_WRITE_DELAY);
 800144c:	2001      	movs	r0, #1
 800144e:	f7ff fd29 	bl	8000ea4 <HAL_Delay>
  (heth->Instance)->DMABMR = tmpreg1;
 8001452:	687b      	ldr	r3, [r7, #4]
 8001454:	681b      	ldr	r3, [r3, #0]
 8001456:	f503 5380 	add.w	r3, r3, #4096	@ 0x1000
 800145a:	461a      	mov	r2, r3
 800145c:	68fb      	ldr	r3, [r7, #12]
 800145e:	6013      	str	r3, [r2, #0]
}
 8001460:	bf00      	nop
 8001462:	3710      	adds	r7, #16
 8001464:	46bd      	mov	sp, r7
 8001466:	bd80      	pop	{r7, pc}
 8001468:	f8de3f23 	.word	0xf8de3f23

0800146c <ETH_MACDMAConfig>:
  * @param  heth: pointer to a ETH_HandleTypeDef structure that contains
  *         the configuration information for ETHERNET module
  * @retval HAL status
  */
static void ETH_MACDMAConfig(ETH_HandleTypeDef *heth)
{
 800146c:	b580      	push	{r7, lr}
 800146e:	b0a6      	sub	sp, #152	@ 0x98
 8001470:	af00      	add	r7, sp, #0
 8001472:	6078      	str	r0, [r7, #4]
  ETH_MACConfigTypeDef macDefaultConf;
  ETH_DMAConfigTypeDef dmaDefaultConf;

  /*--------------- ETHERNET MAC registers default Configuration --------------*/
  macDefaultConf.Watchdog = ENABLE;
 8001474:	2301      	movs	r3, #1
 8001476:	f887 3044 	strb.w	r3, [r7, #68]	@ 0x44
  macDefaultConf.Jabber = ENABLE;
 800147a:	2301      	movs	r3, #1
 800147c:	f887 3045 	strb.w	r3, [r7, #69]	@ 0x45
  macDefaultConf.InterPacketGapVal = ETH_INTERFRAMEGAP_96BIT;
 8001480:	2300      	movs	r3, #0
 8001482:	63fb      	str	r3, [r7, #60]	@ 0x3c
  macDefaultConf.CarrierSenseDuringTransmit = DISABLE;
 8001484:	2300      	movs	r3, #0
 8001486:	f887 3053 	strb.w	r3, [r7, #83]	@ 0x53
  macDefaultConf.ReceiveOwn = ENABLE;
 800148a:	2301      	movs	r3, #1
 800148c:	f887 3052 	strb.w	r3, [r7, #82]	@ 0x52
  macDefaultConf.LoopbackMode = DISABLE;
 8001490:	2300      	movs	r3, #0
 8001492:	f887 3050 	strb.w	r3, [r7, #80]	@ 0x50
  macDefaultConf.CRCStripTypePacket = ENABLE;
 8001496:	2301      	movs	r3, #1
 8001498:	f887 3042 	strb.w	r3, [r7, #66]	@ 0x42
  macDefaultConf.ChecksumOffload = ENABLE;
 800149c:	2301      	movs	r3, #1
 800149e:	f887 3038 	strb.w	r3, [r7, #56]	@ 0x38
  macDefaultConf.RetryTransmission = DISABLE;
 80014a2:	2300      	movs	r3, #0
 80014a4:	f887 3054 	strb.w	r3, [r7, #84]	@ 0x54
  macDefaultConf.AutomaticPadCRCStrip = DISABLE;
 80014a8:	2300      	movs	r3, #0
 80014aa:	f887 3043 	strb.w	r3, [r7, #67]	@ 0x43
  macDefaultConf.BackOffLimit = ETH_BACKOFFLIMIT_10;
 80014ae:	2300      	movs	r3, #0
 80014b0:	65bb      	str	r3, [r7, #88]	@ 0x58
  macDefaultConf.DeferralCheck = DISABLE;
 80014b2:	2300      	movs	r3, #0
 80014b4:	f887 305c 	strb.w	r3, [r7, #92]	@ 0x5c
  macDefaultConf.PauseTime = 0x0U;
 80014b8:	2300      	movs	r3, #0
 80014ba:	67fb      	str	r3, [r7, #124]	@ 0x7c
  macDefaultConf.ZeroQuantaPause = DISABLE;
 80014bc:	2300      	movs	r3, #0
 80014be:	f887 3080 	strb.w	r3, [r7, #128]	@ 0x80
  macDefaultConf.PauseLowThreshold = ETH_PAUSELOWTHRESHOLD_MINUS4;
 80014c2:	2300      	movs	r3, #0
 80014c4:	f8c7 3084 	str.w	r3, [r7, #132]	@ 0x84
  macDefaultConf.ReceiveFlowControl = DISABLE;
 80014c8:	2300      	movs	r3, #0
 80014ca:	f887 308a 	strb.w	r3, [r7, #138]	@ 0x8a
  macDefaultConf.TransmitFlowControl = DISABLE;
 80014ce:	2300      	movs	r3, #0
 80014d0:	f887 3088 	strb.w	r3, [r7, #136]	@ 0x88
  macDefaultConf.Speed = ETH_SPEED_100M;
 80014d4:	f44f 4380 	mov.w	r3, #16384	@ 0x4000
 80014d8:	64bb      	str	r3, [r7, #72]	@ 0x48
  macDefaultConf.DuplexMode = ETH_FULLDUPLEX_MODE;
 80014da:	f44f 6300 	mov.w	r3, #2048	@ 0x800
 80014de:	64fb      	str	r3, [r7, #76]	@ 0x4c
  macDefaultConf.UnicastPausePacketDetect = DISABLE;
 80014e0:	2300      	movs	r3, #0
 80014e2:	f887 3089 	strb.w	r3, [r7, #137]	@ 0x89

  /* MAC default configuration */
  ETH_SetMACConfig(heth, &macDefaultConf);
 80014e6:	f107 0334 	add.w	r3, r7, #52	@ 0x34
 80014ea:	4619      	mov	r1, r3
 80014ec:	6878      	ldr	r0, [r7, #4]
 80014ee:	f7ff fe7f 	bl	80011f0 <ETH_SetMACConfig>

  /*--------------- ETHERNET DMA registers default Configuration --------------*/
  dmaDefaultConf.DropTCPIPChecksumErrorFrame = ENABLE;
 80014f2:	2301      	movs	r3, #1
 80014f4:	753b      	strb	r3, [r7, #20]
  dmaDefaultConf.ReceiveStoreForward = ENABLE;
 80014f6:	2301      	movs	r3, #1
 80014f8:	757b      	strb	r3, [r7, #21]
  dmaDefaultConf.FlushRxPacket = ENABLE;
 80014fa:	2301      	movs	r3, #1
 80014fc:	f887 3025 	strb.w	r3, [r7, #37]	@ 0x25
  dmaDefaultConf.TransmitStoreForward = ENABLE;
 8001500:	2301      	movs	r3, #1
 8001502:	75bb      	strb	r3, [r7, #22]
  dmaDefaultConf.TransmitThresholdControl = ETH_TRANSMITTHRESHOLDCONTROL_64BYTES;
 8001504:	2300      	movs	r3, #0
 8001506:	61fb      	str	r3, [r7, #28]
  dmaDefaultConf.ForwardErrorFrames = DISABLE;
 8001508:	2300      	movs	r3, #0
 800150a:	f887 3024 	strb.w	r3, [r7, #36]	@ 0x24
  dmaDefaultConf.ForwardUndersizedGoodFrames = DISABLE;
 800150e:	2300      	movs	r3, #0
 8001510:	f887 3026 	strb.w	r3, [r7, #38]	@ 0x26
  dmaDefaultConf.ReceiveThresholdControl = ETH_RECEIVEDTHRESHOLDCONTROL_64BYTES;
 8001514:	2300      	movs	r3, #0
 8001516:	62bb      	str	r3, [r7, #40]	@ 0x28
  dmaDefaultConf.SecondFrameOperate = ENABLE;
 8001518:	2301      	movs	r3, #1
 800151a:	f887 302c 	strb.w	r3, [r7, #44]	@ 0x2c
  dmaDefaultConf.AddressAlignedBeats = ENABLE;
 800151e:	2301      	movs	r3, #1
 8001520:	733b      	strb	r3, [r7, #12]
  dmaDefaultConf.BurstMode = ETH_BURSTLENGTH_FIXED;
 8001522:	f44f 3380 	mov.w	r3, #65536	@ 0x10000
 8001526:	613b      	str	r3, [r7, #16]
  dmaDefaultConf.RxDMABurstLength = ETH_RXDMABURSTLENGTH_32BEAT;
 8001528:	f44f 0380 	mov.w	r3, #4194304	@ 0x400000
 800152c:	623b      	str	r3, [r7, #32]
  dmaDefaultConf.TxDMABurstLength = ETH_TXDMABURSTLENGTH_32BEAT;
 800152e:	f44f 5300 	mov.w	r3, #8192	@ 0x2000
 8001532:	61bb      	str	r3, [r7, #24]
  dmaDefaultConf.EnhancedDescriptorFormat = ENABLE;
 8001534:	2301      	movs	r3, #1
 8001536:	f887 302d 	strb.w	r3, [r7, #45]	@ 0x2d
  dmaDefaultConf.DescriptorSkipLength = 0x0U;
 800153a:	2300      	movs	r3, #0
 800153c:	633b      	str	r3, [r7, #48]	@ 0x30
  dmaDefaultConf.DMAArbitration = ETH_DMAARBITRATION_ROUNDROBIN_RXTX_1_1;
 800153e:	2300      	movs	r3, #0
 8001540:	60bb      	str	r3, [r7, #8]

  /* DMA default configuration */
  ETH_SetDMAConfig(heth, &dmaDefaultConf);
 8001542:	f107 0308 	add.w	r3, r7, #8
 8001546:	4619      	mov	r1, r3
 8001548:	6878      	ldr	r0, [r7, #4]
 800154a:	f7ff ff05 	bl	8001358 <ETH_SetDMAConfig>
}
 800154e:	bf00      	nop
 8001550:	3798      	adds	r7, #152	@ 0x98
 8001552:	46bd      	mov	sp, r7
 8001554:	bd80      	pop	{r7, pc}
	...

08001558 <ETH_MACAddressConfig>:
  *             @arg ETH_MAC_Address3: MAC Address3
  * @param  Addr Pointer to MAC address buffer data (6 bytes)
  * @retval HAL status
  */
static void ETH_MACAddressConfig(ETH_HandleTypeDef *heth, uint32_t MacAddr, uint8_t *Addr)
{
 8001558:	b480      	push	{r7}
 800155a:	b087      	sub	sp, #28
 800155c:	af00      	add	r7, sp, #0
 800155e:	60f8      	str	r0, [r7, #12]
 8001560:	60b9      	str	r1, [r7, #8]
 8001562:	607a      	str	r2, [r7, #4]

  /* Prevent unused argument(s) compilation warning */
  UNUSED(heth);

  /* Calculate the selected MAC address high register */
  tmpreg1 = ((uint32_t)Addr[5U] << 8U) | (uint32_t)Addr[4U];
 8001564:	687b      	ldr	r3, [r7, #4]
 8001566:	3305      	adds	r3, #5
 8001568:	781b      	ldrb	r3, [r3, #0]
 800156a:	021b      	lsls	r3, r3, #8
 800156c:	687a      	ldr	r2, [r7, #4]
 800156e:	3204      	adds	r2, #4
 8001570:	7812      	ldrb	r2, [r2, #0]
 8001572:	4313      	orrs	r3, r2
 8001574:	617b      	str	r3, [r7, #20]
  /* Load the selected MAC address high register */
  (*(__IO uint32_t *)((uint32_t)(ETH_MAC_ADDR_HBASE + MacAddr))) = tmpreg1;
 8001576:	68ba      	ldr	r2, [r7, #8]
 8001578:	4b11      	ldr	r3, [pc, #68]	@ (80015c0 <ETH_MACAddressConfig+0x68>)
 800157a:	4413      	add	r3, r2
 800157c:	461a      	mov	r2, r3
 800157e:	697b      	ldr	r3, [r7, #20]
 8001580:	6013      	str	r3, [r2, #0]
  /* Calculate the selected MAC address low register */
  tmpreg1 = ((uint32_t)Addr[3U] << 24U) | ((uint32_t)Addr[2U] << 16U) | ((uint32_t)Addr[1U] << 8U) | Addr[0U];
 8001582:	687b      	ldr	r3, [r7, #4]
 8001584:	3303      	adds	r3, #3
 8001586:	781b      	ldrb	r3, [r3, #0]
 8001588:	061a      	lsls	r2, r3, #24
 800158a:	687b      	ldr	r3, [r7, #4]
 800158c:	3302      	adds	r3, #2
 800158e:	781b      	ldrb	r3, [r3, #0]
 8001590:	041b      	lsls	r3, r3, #16
 8001592:	431a      	orrs	r2, r3
 8001594:	687b      	ldr	r3, [r7, #4]
 8001596:	3301      	adds	r3, #1
 8001598:	781b      	ldrb	r3, [r3, #0]
 800159a:	021b      	lsls	r3, r3, #8
 800159c:	4313      	orrs	r3, r2
 800159e:	687a      	ldr	r2, [r7, #4]
 80015a0:	7812      	ldrb	r2, [r2, #0]
 80015a2:	4313      	orrs	r3, r2
 80015a4:	617b      	str	r3, [r7, #20]

  /* Load the selected MAC address low register */
  (*(__IO uint32_t *)((uint32_t)(ETH_MAC_ADDR_LBASE + MacAddr))) = tmpreg1;
 80015a6:	68ba      	ldr	r2, [r7, #8]
 80015a8:	4b06      	ldr	r3, [pc, #24]	@ (80015c4 <ETH_MACAddressConfig+0x6c>)
 80015aa:	4413      	add	r3, r2
 80015ac:	461a      	mov	r2, r3
 80015ae:	697b      	ldr	r3, [r7, #20]
 80015b0:	6013      	str	r3, [r2, #0]
}
 80015b2:	bf00      	nop
 80015b4:	371c      	adds	r7, #28
 80015b6:	46bd      	mov	sp, r7
 80015b8:	f85d 7b04 	ldr.w	r7, [sp], #4
 80015bc:	4770      	bx	lr
 80015be:	bf00      	nop
 80015c0:	40028040 	.word	0x40028040
 80015c4:	40028044 	.word	0x40028044

080015c8 <ETH_DMATxDescListInit>:
  * @param  heth: pointer to a ETH_HandleTypeDef structure that contains
  *         the configuration information for ETHERNET module
  * @retval None
  */
static void ETH_DMATxDescListInit(ETH_HandleTypeDef *heth)
{
 80015c8:	b480      	push	{r7}
 80015ca:	b085      	sub	sp, #20
 80015cc:	af00      	add	r7, sp, #0
 80015ce:	6078      	str	r0, [r7, #4]
  ETH_DMADescTypeDef *dmatxdesc;
  uint32_t i;

  /* Fill each DMATxDesc descriptor with the right values */
  for (i = 0; i < (uint32_t)ETH_TX_DESC_CNT; i++)
 80015d0:	2300      	movs	r3, #0
 80015d2:	60fb      	str	r3, [r7, #12]
 80015d4:	e03e      	b.n	8001654 <ETH_DMATxDescListInit+0x8c>
  {
    dmatxdesc = heth->Init.TxDesc + i;
 80015d6:	687b      	ldr	r3, [r7, #4]
 80015d8:	68d9      	ldr	r1, [r3, #12]
 80015da:	68fa      	ldr	r2, [r7, #12]
 80015dc:	4613      	mov	r3, r2
 80015de:	009b      	lsls	r3, r3, #2
 80015e0:	4413      	add	r3, r2
 80015e2:	00db      	lsls	r3, r3, #3
 80015e4:	440b      	add	r3, r1
 80015e6:	60bb      	str	r3, [r7, #8]

    WRITE_REG(dmatxdesc->DESC0, 0x0U);
 80015e8:	68bb      	ldr	r3, [r7, #8]
 80015ea:	2200      	movs	r2, #0
 80015ec:	601a      	str	r2, [r3, #0]
    WRITE_REG(dmatxdesc->DESC1, 0x0U);
 80015ee:	68bb      	ldr	r3, [r7, #8]
 80015f0:	2200      	movs	r2, #0
 80015f2:	605a      	str	r2, [r3, #4]
    WRITE_REG(dmatxdesc->DESC2, 0x0U);
 80015f4:	68bb      	ldr	r3, [r7, #8]
 80015f6:	2200      	movs	r2, #0
 80015f8:	609a      	str	r2, [r3, #8]
    WRITE_REG(dmatxdesc->DESC3, 0x0U);
 80015fa:	68bb      	ldr	r3, [r7, #8]
 80015fc:	2200      	movs	r2, #0
 80015fe:	60da      	str	r2, [r3, #12]

    WRITE_REG(heth->TxDescList.TxDesc[i], (uint32_t)dmatxdesc);
 8001600:	68b9      	ldr	r1, [r7, #8]
 8001602:	687b      	ldr	r3, [r7, #4]
 8001604:	68fa      	ldr	r2, [r7, #12]
 8001606:	3206      	adds	r2, #6
 8001608:	f843 1022 	str.w	r1, [r3, r2, lsl #2]

    /* Set Second Address Chained bit */
    SET_BIT(dmatxdesc->DESC0, ETH_DMATXDESC_TCH);
 800160c:	68bb      	ldr	r3, [r7, #8]
 800160e:	681b      	ldr	r3, [r3, #0]
 8001610:	f443 1280 	orr.w	r2, r3, #1048576	@ 0x100000
 8001614:	68bb      	ldr	r3, [r7, #8]
 8001616:	601a      	str	r2, [r3, #0]

    if (i < ((uint32_t)ETH_TX_DESC_CNT - 1U))
 8001618:	68fb      	ldr	r3, [r7, #12]
 800161a:	2b02      	cmp	r3, #2
 800161c:	d80c      	bhi.n	8001638 <ETH_DMATxDescListInit+0x70>
    {
      WRITE_REG(dmatxdesc->DESC3, (uint32_t)(heth->Init.TxDesc + i + 1U));
 800161e:	687b      	ldr	r3, [r7, #4]
 8001620:	68d9      	ldr	r1, [r3, #12]
 8001622:	68fb      	ldr	r3, [r7, #12]
 8001624:	1c5a      	adds	r2, r3, #1
 8001626:	4613      	mov	r3, r2
 8001628:	009b      	lsls	r3, r3, #2
 800162a:	4413      	add	r3, r2
 800162c:	00db      	lsls	r3, r3, #3
 800162e:	440b      	add	r3, r1
 8001630:	461a      	mov	r2, r3
 8001632:	68bb      	ldr	r3, [r7, #8]
 8001634:	60da      	str	r2, [r3, #12]
 8001636:	e004      	b.n	8001642 <ETH_DMATxDescListInit+0x7a>
    }
    else
    {
      WRITE_REG(dmatxdesc->DESC3, (uint32_t)(heth->Init.TxDesc));
 8001638:	687b      	ldr	r3, [r7, #4]
 800163a:	68db      	ldr	r3, [r3, #12]
 800163c:	461a      	mov	r2, r3
 800163e:	68bb      	ldr	r3, [r7, #8]
 8001640:	60da      	str	r2, [r3, #12]
    }

    /* Set the DMA Tx descriptors checksum insertion */
    SET_BIT(dmatxdesc->DESC0, ETH_DMATXDESC_CHECKSUMTCPUDPICMPFULL);
 8001642:	68bb      	ldr	r3, [r7, #8]
 8001644:	681b      	ldr	r3, [r3, #0]
 8001646:	f443 0240 	orr.w	r2, r3, #12582912	@ 0xc00000
 800164a:	68bb      	ldr	r3, [r7, #8]
 800164c:	601a      	str	r2, [r3, #0]
  for (i = 0; i < (uint32_t)ETH_TX_DESC_CNT; i++)
 800164e:	68fb      	ldr	r3, [r7, #12]
 8001650:	3301      	adds	r3, #1
 8001652:	60fb      	str	r3, [r7, #12]
 8001654:	68fb      	ldr	r3, [r7, #12]
 8001656:	2b03      	cmp	r3, #3
 8001658:	d9bd      	bls.n	80015d6 <ETH_DMATxDescListInit+0xe>
  }

  heth->TxDescList.CurTxDesc = 0;
 800165a:	687b      	ldr	r3, [r7, #4]
 800165c:	2200      	movs	r2, #0
 800165e:	629a      	str	r2, [r3, #40]	@ 0x28

  /* Set Transmit Descriptor List Address */
  WRITE_REG(heth->Instance->DMATDLAR, (uint32_t) heth->Init.TxDesc);
 8001660:	687b      	ldr	r3, [r7, #4]
 8001662:	68da      	ldr	r2, [r3, #12]
 8001664:	687b      	ldr	r3, [r7, #4]
 8001666:	681b      	ldr	r3, [r3, #0]
 8001668:	f503 5380 	add.w	r3, r3, #4096	@ 0x1000
 800166c:	611a      	str	r2, [r3, #16]
}
 800166e:	bf00      	nop
 8001670:	3714      	adds	r7, #20
 8001672:	46bd      	mov	sp, r7
 8001674:	f85d 7b04 	ldr.w	r7, [sp], #4
 8001678:	4770      	bx	lr

0800167a <ETH_DMARxDescListInit>:
  * @param  heth: pointer to a ETH_HandleTypeDef structure that contains
  *         the configuration information for ETHERNET module
  * @retval None
  */
static void ETH_DMARxDescListInit(ETH_HandleTypeDef *heth)
{
 800167a:	b480      	push	{r7}
 800167c:	b085      	sub	sp, #20
 800167e:	af00      	add	r7, sp, #0
 8001680:	6078      	str	r0, [r7, #4]
  ETH_DMADescTypeDef *dmarxdesc;
  uint32_t i;

  for (i = 0; i < (uint32_t)ETH_RX_DESC_CNT; i++)
 8001682:	2300      	movs	r3, #0
 8001684:	60fb      	str	r3, [r7, #12]
 8001686:	e048      	b.n	800171a <ETH_DMARxDescListInit+0xa0>
  {
    dmarxdesc =  heth->Init.RxDesc + i;
 8001688:	687b      	ldr	r3, [r7, #4]
 800168a:	6919      	ldr	r1, [r3, #16]
 800168c:	68fa      	ldr	r2, [r7, #12]
 800168e:	4613      	mov	r3, r2
 8001690:	009b      	lsls	r3, r3, #2
 8001692:	4413      	add	r3, r2
 8001694:	00db      	lsls	r3, r3, #3
 8001696:	440b      	add	r3, r1
 8001698:	60bb      	str	r3, [r7, #8]

    WRITE_REG(dmarxdesc->DESC0, 0x0U);
 800169a:	68bb      	ldr	r3, [r7, #8]
 800169c:	2200      	movs	r2, #0
 800169e:	601a      	str	r2, [r3, #0]
    WRITE_REG(dmarxdesc->DESC1, 0x0U);
 80016a0:	68bb      	ldr	r3, [r7, #8]
 80016a2:	2200      	movs	r2, #0
 80016a4:	605a      	str	r2, [r3, #4]
    WRITE_REG(dmarxdesc->DESC2, 0x0U);
 80016a6:	68bb      	ldr	r3, [r7, #8]
 80016a8:	2200      	movs	r2, #0
 80016aa:	609a      	str	r2, [r3, #8]
    WRITE_REG(dmarxdesc->DESC3, 0x0U);
 80016ac:	68bb      	ldr	r3, [r7, #8]
 80016ae:	2200      	movs	r2, #0
 80016b0:	60da      	str	r2, [r3, #12]
    WRITE_REG(dmarxdesc->BackupAddr0, 0x0U);
 80016b2:	68bb      	ldr	r3, [r7, #8]
 80016b4:	2200      	movs	r2, #0
 80016b6:	621a      	str	r2, [r3, #32]
    WRITE_REG(dmarxdesc->BackupAddr1, 0x0U);
 80016b8:	68bb      	ldr	r3, [r7, #8]
 80016ba:	2200      	movs	r2, #0
 80016bc:	625a      	str	r2, [r3, #36]	@ 0x24

    /* Set Own bit of the Rx descriptor Status */
    dmarxdesc->DESC0 = ETH_DMARXDESC_OWN;
 80016be:	68bb      	ldr	r3, [r7, #8]
 80016c0:	f04f 4200 	mov.w	r2, #2147483648	@ 0x80000000
 80016c4:	601a      	str	r2, [r3, #0]

    /* Set Buffer1 size and Second Address Chained bit */
    dmarxdesc->DESC1 = heth->Init.RxBuffLen | ETH_DMARXDESC_RCH;
 80016c6:	687b      	ldr	r3, [r7, #4]
 80016c8:	695b      	ldr	r3, [r3, #20]
 80016ca:	f443 4280 	orr.w	r2, r3, #16384	@ 0x4000
 80016ce:	68bb      	ldr	r3, [r7, #8]
 80016d0:	605a      	str	r2, [r3, #4]

    /* Enable Ethernet DMA Rx Descriptor interrupt */
    dmarxdesc->DESC1 &= ~ETH_DMARXDESC_DIC;
 80016d2:	68bb      	ldr	r3, [r7, #8]
 80016d4:	685b      	ldr	r3, [r3, #4]
 80016d6:	f023 4200 	bic.w	r2, r3, #2147483648	@ 0x80000000
 80016da:	68bb      	ldr	r3, [r7, #8]
 80016dc:	605a      	str	r2, [r3, #4]
    /* Set Rx descritors addresses */
    WRITE_REG(heth->RxDescList.RxDesc[i], (uint32_t)dmarxdesc);
 80016de:	68b9      	ldr	r1, [r7, #8]
 80016e0:	687b      	ldr	r3, [r7, #4]
 80016e2:	68fa      	ldr	r2, [r7, #12]
 80016e4:	3212      	adds	r2, #18
 80016e6:	f843 1022 	str.w	r1, [r3, r2, lsl #2]

    if (i < ((uint32_t)ETH_RX_DESC_CNT - 1U))
 80016ea:	68fb      	ldr	r3, [r7, #12]
 80016ec:	2b02      	cmp	r3, #2
 80016ee:	d80c      	bhi.n	800170a <ETH_DMARxDescListInit+0x90>
    {
      WRITE_REG(dmarxdesc->DESC3, (uint32_t)(heth->Init.RxDesc + i + 1U));
 80016f0:	687b      	ldr	r3, [r7, #4]
 80016f2:	6919      	ldr	r1, [r3, #16]
 80016f4:	68fb      	ldr	r3, [r7, #12]
 80016f6:	1c5a      	adds	r2, r3, #1
 80016f8:	4613      	mov	r3, r2
 80016fa:	009b      	lsls	r3, r3, #2
 80016fc:	4413      	add	r3, r2
 80016fe:	00db      	lsls	r3, r3, #3
 8001700:	440b      	add	r3, r1
 8001702:	461a      	mov	r2, r3
 8001704:	68bb      	ldr	r3, [r7, #8]
 8001706:	60da      	str	r2, [r3, #12]
 8001708:	e004      	b.n	8001714 <ETH_DMARxDescListInit+0x9a>
    }
    else
    {
      WRITE_REG(dmarxdesc->DESC3, (uint32_t)(heth->Init.RxDesc));
 800170a:	687b      	ldr	r3, [r7, #4]
 800170c:	691b      	ldr	r3, [r3, #16]
 800170e:	461a      	mov	r2, r3
 8001710:	68bb      	ldr	r3, [r7, #8]
 8001712:	60da      	str	r2, [r3, #12]
  for (i = 0; i < (uint32_t)ETH_RX_DESC_CNT; i++)
 8001714:	68fb      	ldr	r3, [r7, #12]
 8001716:	3301      	adds	r3, #1
 8001718:	60fb      	str	r3, [r7, #12]
 800171a:	68fb      	ldr	r3, [r7, #12]
 800171c:	2b03      	cmp	r3, #3
 800171e:	d9b3      	bls.n	8001688 <ETH_DMARxDescListInit+0xe>
    }
  }

  WRITE_REG(heth->RxDescList.RxDescIdx, 0U);
 8001720:	687b      	ldr	r3, [r7, #4]
 8001722:	2200      	movs	r2, #0
 8001724:	65da      	str	r2, [r3, #92]	@ 0x5c
  WRITE_REG(heth->RxDescList.RxDescCnt, 0U);
 8001726:	687b      	ldr	r3, [r7, #4]
 8001728:	2200      	movs	r2, #0
 800172a:	661a      	str	r2, [r3, #96]	@ 0x60
  WRITE_REG(heth->RxDescList.RxBuildDescIdx, 0U);
 800172c:	687b      	ldr	r3, [r7, #4]
 800172e:	2200      	movs	r2, #0
 8001730:	669a      	str	r2, [r3, #104]	@ 0x68
  WRITE_REG(heth->RxDescList.RxBuildDescCnt, 0U);
 8001732:	687b      	ldr	r3, [r7, #4]
 8001734:	2200      	movs	r2, #0
 8001736:	66da      	str	r2, [r3, #108]	@ 0x6c
  WRITE_REG(heth->RxDescList.ItMode, 0U);
 8001738:	687b      	ldr	r3, [r7, #4]
 800173a:	2200      	movs	r2, #0
 800173c:	659a      	str	r2, [r3, #88]	@ 0x58

  /* Set Receive Descriptor List Address */
  WRITE_REG(heth->Instance->DMARDLAR, (uint32_t) heth->Init.RxDesc);
 800173e:	687b      	ldr	r3, [r7, #4]
 8001740:	691a      	ldr	r2, [r3, #16]
 8001742:	687b      	ldr	r3, [r7, #4]
 8001744:	681b      	ldr	r3, [r3, #0]
 8001746:	f503 5380 	add.w	r3, r3, #4096	@ 0x1000
 800174a:	60da      	str	r2, [r3, #12]
}
 800174c:	bf00      	nop
 800174e:	3714      	adds	r7, #20
 8001750:	46bd      	mov	sp, r7
 8001752:	f85d 7b04 	ldr.w	r7, [sp], #4
 8001756:	4770      	bx	lr

08001758 <HAL_GPIO_Init>:
  * @param  GPIO_Init pointer to a GPIO_InitTypeDef structure that contains
  *         the configuration information for the specified GPIO peripheral.
  * @retval None
  */
void HAL_GPIO_Init(GPIO_TypeDef  *GPIOx, GPIO_InitTypeDef *GPIO_Init)
{
 8001758:	b480      	push	{r7}
 800175a:	b089      	sub	sp, #36	@ 0x24
 800175c:	af00      	add	r7, sp, #0
 800175e:	6078      	str	r0, [r7, #4]
 8001760:	6039      	str	r1, [r7, #0]
  uint32_t position;
  uint32_t ioposition = 0x00U;
 8001762:	2300      	movs	r3, #0
 8001764:	617b      	str	r3, [r7, #20]
  uint32_t iocurrent = 0x00U;
 8001766:	2300      	movs	r3, #0
 8001768:	613b      	str	r3, [r7, #16]
  uint32_t temp = 0x00U;
 800176a:	2300      	movs	r3, #0
 800176c:	61bb      	str	r3, [r7, #24]
  assert_param(IS_GPIO_ALL_INSTANCE(GPIOx));
  assert_param(IS_GPIO_PIN(GPIO_Init->Pin));
  assert_param(IS_GPIO_MODE(GPIO_Init->Mode));

  /* Configure the port pins */
  for(position = 0U; position < GPIO_NUMBER; position++)
 800176e:	2300      	movs	r3, #0
 8001770:	61fb      	str	r3, [r7, #28]
 8001772:	e177      	b.n	8001a64 <HAL_GPIO_Init+0x30c>
  {
    /* Get the IO position */
    ioposition = 0x01U << position;
 8001774:	2201      	movs	r2, #1
 8001776:	69fb      	ldr	r3, [r7, #28]
 8001778:	fa02 f303 	lsl.w	r3, r2, r3
 800177c:	617b      	str	r3, [r7, #20]
    /* Get the current IO position */
    iocurrent = (uint32_t)(GPIO_Init->Pin) & ioposition;
 800177e:	683b      	ldr	r3, [r7, #0]
 8001780:	681b      	ldr	r3, [r3, #0]
 8001782:	697a      	ldr	r2, [r7, #20]
 8001784:	4013      	ands	r3, r2
 8001786:	613b      	str	r3, [r7, #16]

    if(iocurrent == ioposition)
 8001788:	693a      	ldr	r2, [r7, #16]
 800178a:	697b      	ldr	r3, [r7, #20]
 800178c:	429a      	cmp	r2, r3
 800178e:	f040 8166 	bne.w	8001a5e <HAL_GPIO_Init+0x306>
    {
      /*--------------------- GPIO Mode Configuration ------------------------*/
      /* In case of Output or Alternate function mode selection */
      if(((GPIO_Init->Mode & GPIO_MODE) == MODE_OUTPUT) || \
 8001792:	683b      	ldr	r3, [r7, #0]
 8001794:	685b      	ldr	r3, [r3, #4]
 8001796:	f003 0303 	and.w	r3, r3, #3
 800179a:	2b01      	cmp	r3, #1
 800179c:	d005      	beq.n	80017aa <HAL_GPIO_Init+0x52>
          (GPIO_Init->Mode & GPIO_MODE) == MODE_AF)
 800179e:	683b      	ldr	r3, [r7, #0]
 80017a0:	685b      	ldr	r3, [r3, #4]
 80017a2:	f003 0303 	and.w	r3, r3, #3
      if(((GPIO_Init->Mode & GPIO_MODE) == MODE_OUTPUT) || \
 80017a6:	2b02      	cmp	r3, #2
 80017a8:	d130      	bne.n	800180c <HAL_GPIO_Init+0xb4>
      {
        /* Check the Speed parameter */
        assert_param(IS_GPIO_SPEED(GPIO_Init->Speed));
        /* Configure the IO Speed */
        temp = GPIOx->OSPEEDR; 
 80017aa:	687b      	ldr	r3, [r7, #4]
 80017ac:	689b      	ldr	r3, [r3, #8]
 80017ae:	61bb      	str	r3, [r7, #24]
        temp &= ~(GPIO_OSPEEDER_OSPEEDR0 << (position * 2U));
 80017b0:	69fb      	ldr	r3, [r7, #28]
 80017b2:	005b      	lsls	r3, r3, #1
 80017b4:	2203      	movs	r2, #3
 80017b6:	fa02 f303 	lsl.w	r3, r2, r3
 80017ba:	43db      	mvns	r3, r3
 80017bc:	69ba      	ldr	r2, [r7, #24]
 80017be:	4013      	ands	r3, r2
 80017c0:	61bb      	str	r3, [r7, #24]
        temp |= (GPIO_Init->Speed << (position * 2U));
 80017c2:	683b      	ldr	r3, [r7, #0]
 80017c4:	68da      	ldr	r2, [r3, #12]
 80017c6:	69fb      	ldr	r3, [r7, #28]
 80017c8:	005b      	lsls	r3, r3, #1
 80017ca:	fa02 f303 	lsl.w	r3, r2, r3
 80017ce:	69ba      	ldr	r2, [r7, #24]
 80017d0:	4313      	orrs	r3, r2
 80017d2:	61bb      	str	r3, [r7, #24]
        GPIOx->OSPEEDR = temp;
 80017d4:	687b      	ldr	r3, [r7, #4]
 80017d6:	69ba      	ldr	r2, [r7, #24]
 80017d8:	609a      	str	r2, [r3, #8]

        /* Configure the IO Output Type */
        temp = GPIOx->OTYPER;
 80017da:	687b      	ldr	r3, [r7, #4]
 80017dc:	685b      	ldr	r3, [r3, #4]
 80017de:	61bb      	str	r3, [r7, #24]
        temp &= ~(GPIO_OTYPER_OT_0 << position) ;
 80017e0:	2201      	movs	r2, #1
 80017e2:	69fb      	ldr	r3, [r7, #28]
 80017e4:	fa02 f303 	lsl.w	r3, r2, r3
 80017e8:	43db      	mvns	r3, r3
 80017ea:	69ba      	ldr	r2, [r7, #24]
 80017ec:	4013      	ands	r3, r2
 80017ee:	61bb      	str	r3, [r7, #24]
        temp |= (((GPIO_Init->Mode & OUTPUT_TYPE) >> OUTPUT_TYPE_Pos) << position);
 80017f0:	683b      	ldr	r3, [r7, #0]
 80017f2:	685b      	ldr	r3, [r3, #4]
 80017f4:	091b      	lsrs	r3, r3, #4
 80017f6:	f003 0201 	and.w	r2, r3, #1
 80017fa:	69fb      	ldr	r3, [r7, #28]
 80017fc:	fa02 f303 	lsl.w	r3, r2, r3
 8001800:	69ba      	ldr	r2, [r7, #24]
 8001802:	4313      	orrs	r3, r2
 8001804:	61bb      	str	r3, [r7, #24]
        GPIOx->OTYPER = temp;
 8001806:	687b      	ldr	r3, [r7, #4]
 8001808:	69ba      	ldr	r2, [r7, #24]
 800180a:	605a      	str	r2, [r3, #4]
       }

      if((GPIO_Init->Mode & GPIO_MODE) != MODE_ANALOG)
 800180c:	683b      	ldr	r3, [r7, #0]
 800180e:	685b      	ldr	r3, [r3, #4]
 8001810:	f003 0303 	and.w	r3, r3, #3
 8001814:	2b03      	cmp	r3, #3
 8001816:	d017      	beq.n	8001848 <HAL_GPIO_Init+0xf0>
      {
        /* Check the parameters */
        assert_param(IS_GPIO_PULL(GPIO_Init->Pull));
        
        /* Activate the Pull-up or Pull down resistor for the current IO */
        temp = GPIOx->PUPDR;
 8001818:	687b      	ldr	r3, [r7, #4]
 800181a:	68db      	ldr	r3, [r3, #12]
 800181c:	61bb      	str	r3, [r7, #24]
        temp &= ~(GPIO_PUPDR_PUPDR0 << (position * 2U));
 800181e:	69fb      	ldr	r3, [r7, #28]
 8001820:	005b      	lsls	r3, r3, #1
 8001822:	2203      	movs	r2, #3
 8001824:	fa02 f303 	lsl.w	r3, r2, r3
 8001828:	43db      	mvns	r3, r3
 800182a:	69ba      	ldr	r2, [r7, #24]
 800182c:	4013      	ands	r3, r2
 800182e:	61bb      	str	r3, [r7, #24]
        temp |= ((GPIO_Init->Pull) << (position * 2U));
 8001830:	683b      	ldr	r3, [r7, #0]
 8001832:	689a      	ldr	r2, [r3, #8]
 8001834:	69fb      	ldr	r3, [r7, #28]
 8001836:	005b      	lsls	r3, r3, #1
 8001838:	fa02 f303 	lsl.w	r3, r2, r3
 800183c:	69ba      	ldr	r2, [r7, #24]
 800183e:	4313      	orrs	r3, r2
 8001840:	61bb      	str	r3, [r7, #24]
        GPIOx->PUPDR = temp;
 8001842:	687b      	ldr	r3, [r7, #4]
 8001844:	69ba      	ldr	r2, [r7, #24]
 8001846:	60da      	str	r2, [r3, #12]
      }

      /* In case of Alternate function mode selection */
      if((GPIO_Init->Mode & GPIO_MODE) == MODE_AF)
 8001848:	683b      	ldr	r3, [r7, #0]
 800184a:	685b      	ldr	r3, [r3, #4]
 800184c:	f003 0303 	and.w	r3, r3, #3
 8001850:	2b02      	cmp	r3, #2
 8001852:	d123      	bne.n	800189c <HAL_GPIO_Init+0x144>
      {
        /* Check the Alternate function parameter */
        assert_param(IS_GPIO_AF(GPIO_Init->Alternate));
        /* Configure Alternate function mapped with the current IO */
        temp = GPIOx->AFR[position >> 3U];
 8001854:	69fb      	ldr	r3, [r7, #28]
 8001856:	08da      	lsrs	r2, r3, #3
 8001858:	687b      	ldr	r3, [r7, #4]
 800185a:	3208      	adds	r2, #8
 800185c:	f853 3022 	ldr.w	r3, [r3, r2, lsl #2]
 8001860:	61bb      	str	r3, [r7, #24]
        temp &= ~(0xFU << ((uint32_t)(position & 0x07U) * 4U)) ;
 8001862:	69fb      	ldr	r3, [r7, #28]
 8001864:	f003 0307 	and.w	r3, r3, #7
 8001868:	009b      	lsls	r3, r3, #2
 800186a:	220f      	movs	r2, #15
 800186c:	fa02 f303 	lsl.w	r3, r2, r3
 8001870:	43db      	mvns	r3, r3
 8001872:	69ba      	ldr	r2, [r7, #24]
 8001874:	4013      	ands	r3, r2
 8001876:	61bb      	str	r3, [r7, #24]
        temp |= ((uint32_t)(GPIO_Init->Alternate) << (((uint32_t)position & 0x07U) * 4U));
 8001878:	683b      	ldr	r3, [r7, #0]
 800187a:	691a      	ldr	r2, [r3, #16]
 800187c:	69fb      	ldr	r3, [r7, #28]
 800187e:	f003 0307 	and.w	r3, r3, #7
 8001882:	009b      	lsls	r3, r3, #2
 8001884:	fa02 f303 	lsl.w	r3, r2, r3
 8001888:	69ba      	ldr	r2, [r7, #24]
 800188a:	4313      	orrs	r3, r2
 800188c:	61bb      	str	r3, [r7, #24]
        GPIOx->AFR[position >> 3U] = temp;
 800188e:	69fb      	ldr	r3, [r7, #28]
 8001890:	08da      	lsrs	r2, r3, #3
 8001892:	687b      	ldr	r3, [r7, #4]
 8001894:	3208      	adds	r2, #8
 8001896:	69b9      	ldr	r1, [r7, #24]
 8001898:	f843 1022 	str.w	r1, [r3, r2, lsl #2]
      }

      /* Configure IO Direction mode (Input, Output, Alternate or Analog) */
      temp = GPIOx->MODER;
 800189c:	687b      	ldr	r3, [r7, #4]
 800189e:	681b      	ldr	r3, [r3, #0]
 80018a0:	61bb      	str	r3, [r7, #24]
      temp &= ~(GPIO_MODER_MODER0 << (position * 2U));
 80018a2:	69fb      	ldr	r3, [r7, #28]
 80018a4:	005b      	lsls	r3, r3, #1
 80018a6:	2203      	movs	r2, #3
 80018a8:	fa02 f303 	lsl.w	r3, r2, r3
 80018ac:	43db      	mvns	r3, r3
 80018ae:	69ba      	ldr	r2, [r7, #24]
 80018b0:	4013      	ands	r3, r2
 80018b2:	61bb      	str	r3, [r7, #24]
      temp |= ((GPIO_Init->Mode & GPIO_MODE) << (position * 2U));
 80018b4:	683b      	ldr	r3, [r7, #0]
 80018b6:	685b      	ldr	r3, [r3, #4]
 80018b8:	f003 0203 	and.w	r2, r3, #3
 80018bc:	69fb      	ldr	r3, [r7, #28]
 80018be:	005b      	lsls	r3, r3, #1
 80018c0:	fa02 f303 	lsl.w	r3, r2, r3
 80018c4:	69ba      	ldr	r2, [r7, #24]
 80018c6:	4313      	orrs	r3, r2
 80018c8:	61bb      	str	r3, [r7, #24]
      GPIOx->MODER = temp;
 80018ca:	687b      	ldr	r3, [r7, #4]
 80018cc:	69ba      	ldr	r2, [r7, #24]
 80018ce:	601a      	str	r2, [r3, #0]

      /*--------------------- EXTI Mode Configuration ------------------------*/
      /* Configure the External Interrupt or event for the current IO */
      if((GPIO_Init->Mode & EXTI_MODE) != 0x00U)
 80018d0:	683b      	ldr	r3, [r7, #0]
 80018d2:	685b      	ldr	r3, [r3, #4]
 80018d4:	f403 3340 	and.w	r3, r3, #196608	@ 0x30000
 80018d8:	2b00      	cmp	r3, #0
 80018da:	f000 80c0 	beq.w	8001a5e <HAL_GPIO_Init+0x306>
      {
        /* Enable SYSCFG Clock */
        __HAL_RCC_SYSCFG_CLK_ENABLE();
 80018de:	2300      	movs	r3, #0
 80018e0:	60fb      	str	r3, [r7, #12]
 80018e2:	4b66      	ldr	r3, [pc, #408]	@ (8001a7c <HAL_GPIO_Init+0x324>)
 80018e4:	6c5b      	ldr	r3, [r3, #68]	@ 0x44
 80018e6:	4a65      	ldr	r2, [pc, #404]	@ (8001a7c <HAL_GPIO_Init+0x324>)
 80018e8:	f443 4380 	orr.w	r3, r3, #16384	@ 0x4000
 80018ec:	6453      	str	r3, [r2, #68]	@ 0x44
 80018ee:	4b63      	ldr	r3, [pc, #396]	@ (8001a7c <HAL_GPIO_Init+0x324>)
 80018f0:	6c5b      	ldr	r3, [r3, #68]	@ 0x44
 80018f2:	f403 4380 	and.w	r3, r3, #16384	@ 0x4000
 80018f6:	60fb      	str	r3, [r7, #12]
 80018f8:	68fb      	ldr	r3, [r7, #12]

        temp = SYSCFG->EXTICR[position >> 2U];
 80018fa:	4a61      	ldr	r2, [pc, #388]	@ (8001a80 <HAL_GPIO_Init+0x328>)
 80018fc:	69fb      	ldr	r3, [r7, #28]
 80018fe:	089b      	lsrs	r3, r3, #2
 8001900:	3302      	adds	r3, #2
 8001902:	f852 3023 	ldr.w	r3, [r2, r3, lsl #2]
 8001906:	61bb      	str	r3, [r7, #24]
        temp &= ~(0x0FU << (4U * (position & 0x03U)));
 8001908:	69fb      	ldr	r3, [r7, #28]
 800190a:	f003 0303 	and.w	r3, r3, #3
 800190e:	009b      	lsls	r3, r3, #2
 8001910:	220f      	movs	r2, #15
 8001912:	fa02 f303 	lsl.w	r3, r2, r3
 8001916:	43db      	mvns	r3, r3
 8001918:	69ba      	ldr	r2, [r7, #24]
 800191a:	4013      	ands	r3, r2
 800191c:	61bb      	str	r3, [r7, #24]
        temp |= ((uint32_t)(GPIO_GET_INDEX(GPIOx)) << (4U * (position & 0x03U)));
 800191e:	687b      	ldr	r3, [r7, #4]
 8001920:	4a58      	ldr	r2, [pc, #352]	@ (8001a84 <HAL_GPIO_Init+0x32c>)
 8001922:	4293      	cmp	r3, r2
 8001924:	d037      	beq.n	8001996 <HAL_GPIO_Init+0x23e>
 8001926:	687b      	ldr	r3, [r7, #4]
 8001928:	4a57      	ldr	r2, [pc, #348]	@ (8001a88 <HAL_GPIO_Init+0x330>)
 800192a:	4293      	cmp	r3, r2
 800192c:	d031      	beq.n	8001992 <HAL_GPIO_Init+0x23a>
 800192e:	687b      	ldr	r3, [r7, #4]
 8001930:	4a56      	ldr	r2, [pc, #344]	@ (8001a8c <HAL_GPIO_Init+0x334>)
 8001932:	4293      	cmp	r3, r2
 8001934:	d02b      	beq.n	800198e <HAL_GPIO_Init+0x236>
 8001936:	687b      	ldr	r3, [r7, #4]
 8001938:	4a55      	ldr	r2, [pc, #340]	@ (8001a90 <HAL_GPIO_Init+0x338>)
 800193a:	4293      	cmp	r3, r2
 800193c:	d025      	beq.n	800198a <HAL_GPIO_Init+0x232>
 800193e:	687b      	ldr	r3, [r7, #4]
 8001940:	4a54      	ldr	r2, [pc, #336]	@ (8001a94 <HAL_GPIO_Init+0x33c>)
 8001942:	4293      	cmp	r3, r2
 8001944:	d01f      	beq.n	8001986 <HAL_GPIO_Init+0x22e>
 8001946:	687b      	ldr	r3, [r7, #4]
 8001948:	4a53      	ldr	r2, [pc, #332]	@ (8001a98 <HAL_GPIO_Init+0x340>)
 800194a:	4293      	cmp	r3, r2
 800194c:	d019      	beq.n	8001982 <HAL_GPIO_Init+0x22a>
 800194e:	687b      	ldr	r3, [r7, #4]
 8001950:	4a52      	ldr	r2, [pc, #328]	@ (8001a9c <HAL_GPIO_Init+0x344>)
 8001952:	4293      	cmp	r3, r2
 8001954:	d013      	beq.n	800197e <HAL_GPIO_Init+0x226>
 8001956:	687b      	ldr	r3, [r7, #4]
 8001958:	4a51      	ldr	r2, [pc, #324]	@ (8001aa0 <HAL_GPIO_Init+0x348>)
 800195a:	4293      	cmp	r3, r2
 800195c:	d00d      	beq.n	800197a <HAL_GPIO_Init+0x222>
 800195e:	687b      	ldr	r3, [r7, #4]
 8001960:	4a50      	ldr	r2, [pc, #320]	@ (8001aa4 <HAL_GPIO_Init+0x34c>)
 8001962:	4293      	cmp	r3, r2
 8001964:	d007      	beq.n	8001976 <HAL_GPIO_Init+0x21e>
 8001966:	687b      	ldr	r3, [r7, #4]
 8001968:	4a4f      	ldr	r2, [pc, #316]	@ (8001aa8 <HAL_GPIO_Init+0x350>)
 800196a:	4293      	cmp	r3, r2
 800196c:	d101      	bne.n	8001972 <HAL_GPIO_Init+0x21a>
 800196e:	2309      	movs	r3, #9
 8001970:	e012      	b.n	8001998 <HAL_GPIO_Init+0x240>
 8001972:	230a      	movs	r3, #10
 8001974:	e010      	b.n	8001998 <HAL_GPIO_Init+0x240>
 8001976:	2308      	movs	r3, #8
 8001978:	e00e      	b.n	8001998 <HAL_GPIO_Init+0x240>
 800197a:	2307      	movs	r3, #7
 800197c:	e00c      	b.n	8001998 <HAL_GPIO_Init+0x240>
 800197e:	2306      	movs	r3, #6
 8001980:	e00a      	b.n	8001998 <HAL_GPIO_Init+0x240>
 8001982:	2305      	movs	r3, #5
 8001984:	e008      	b.n	8001998 <HAL_GPIO_Init+0x240>
 8001986:	2304      	movs	r3, #4
 8001988:	e006      	b.n	8001998 <HAL_GPIO_Init+0x240>
 800198a:	2303      	movs	r3, #3
 800198c:	e004      	b.n	8001998 <HAL_GPIO_Init+0x240>
 800198e:	2302      	movs	r3, #2
 8001990:	e002      	b.n	8001998 <HAL_GPIO_Init+0x240>
 8001992:	2301      	movs	r3, #1
 8001994:	e000      	b.n	8001998 <HAL_GPIO_Init+0x240>
 8001996:	2300      	movs	r3, #0
 8001998:	69fa      	ldr	r2, [r7, #28]
 800199a:	f002 0203 	and.w	r2, r2, #3
 800199e:	0092      	lsls	r2, r2, #2
 80019a0:	4093      	lsls	r3, r2
 80019a2:	69ba      	ldr	r2, [r7, #24]
 80019a4:	4313      	orrs	r3, r2
 80019a6:	61bb      	str	r3, [r7, #24]
        SYSCFG->EXTICR[position >> 2U] = temp;
 80019a8:	4935      	ldr	r1, [pc, #212]	@ (8001a80 <HAL_GPIO_Init+0x328>)
 80019aa:	69fb      	ldr	r3, [r7, #28]
 80019ac:	089b      	lsrs	r3, r3, #2
 80019ae:	3302      	adds	r3, #2
 80019b0:	69ba      	ldr	r2, [r7, #24]
 80019b2:	f841 2023 	str.w	r2, [r1, r3, lsl #2]

        /* Clear Rising Falling edge configuration */
        temp = EXTI->RTSR;
 80019b6:	4b3d      	ldr	r3, [pc, #244]	@ (8001aac <HAL_GPIO_Init+0x354>)
 80019b8:	689b      	ldr	r3, [r3, #8]
 80019ba:	61bb      	str	r3, [r7, #24]
        temp &= ~((uint32_t)iocurrent);
 80019bc:	693b      	ldr	r3, [r7, #16]
 80019be:	43db      	mvns	r3, r3
 80019c0:	69ba      	ldr	r2, [r7, #24]
 80019c2:	4013      	ands	r3, r2
 80019c4:	61bb      	str	r3, [r7, #24]
        if((GPIO_Init->Mode & TRIGGER_RISING) != 0x00U)
 80019c6:	683b      	ldr	r3, [r7, #0]
 80019c8:	685b      	ldr	r3, [r3, #4]
 80019ca:	f403 1380 	and.w	r3, r3, #1048576	@ 0x100000
 80019ce:	2b00      	cmp	r3, #0
 80019d0:	d003      	beq.n	80019da <HAL_GPIO_Init+0x282>
        {
          temp |= iocurrent;
 80019d2:	69ba      	ldr	r2, [r7, #24]
 80019d4:	693b      	ldr	r3, [r7, #16]
 80019d6:	4313      	orrs	r3, r2
 80019d8:	61bb      	str	r3, [r7, #24]
        }
        EXTI->RTSR = temp;
 80019da:	4a34      	ldr	r2, [pc, #208]	@ (8001aac <HAL_GPIO_Init+0x354>)
 80019dc:	69bb      	ldr	r3, [r7, #24]
 80019de:	6093      	str	r3, [r2, #8]

        temp = EXTI->FTSR;
 80019e0:	4b32      	ldr	r3, [pc, #200]	@ (8001aac <HAL_GPIO_Init+0x354>)
 80019e2:	68db      	ldr	r3, [r3, #12]
 80019e4:	61bb      	str	r3, [r7, #24]
        temp &= ~((uint32_t)iocurrent);
 80019e6:	693b      	ldr	r3, [r7, #16]
 80019e8:	43db      	mvns	r3, r3
 80019ea:	69ba      	ldr	r2, [r7, #24]
 80019ec:	4013      	ands	r3, r2
 80019ee:	61bb      	str	r3, [r7, #24]
        if((GPIO_Init->Mode & TRIGGER_FALLING) != 0x00U)
 80019f0:	683b      	ldr	r3, [r7, #0]
 80019f2:	685b      	ldr	r3, [r3, #4]
 80019f4:	f403 1300 	and.w	r3, r3, #2097152	@ 0x200000
 80019f8:	2b00      	cmp	r3, #0
 80019fa:	d003      	beq.n	8001a04 <HAL_GPIO_Init+0x2ac>
        {
          temp |= iocurrent;
 80019fc:	69ba      	ldr	r2, [r7, #24]
 80019fe:	693b      	ldr	r3, [r7, #16]
 8001a00:	4313      	orrs	r3, r2
 8001a02:	61bb      	str	r3, [r7, #24]
        }
        EXTI->FTSR = temp;
 8001a04:	4a29      	ldr	r2, [pc, #164]	@ (8001aac <HAL_GPIO_Init+0x354>)
 8001a06:	69bb      	ldr	r3, [r7, #24]
 8001a08:	60d3      	str	r3, [r2, #12]

        temp = EXTI->EMR;
 8001a0a:	4b28      	ldr	r3, [pc, #160]	@ (8001aac <HAL_GPIO_Init+0x354>)
 8001a0c:	685b      	ldr	r3, [r3, #4]
 8001a0e:	61bb      	str	r3, [r7, #24]
        temp &= ~((uint32_t)iocurrent);
 8001a10:	693b      	ldr	r3, [r7, #16]
 8001a12:	43db      	mvns	r3, r3
 8001a14:	69ba      	ldr	r2, [r7, #24]
 8001a16:	4013      	ands	r3, r2
 8001a18:	61bb      	str	r3, [r7, #24]
        if((GPIO_Init->Mode & EXTI_EVT) != 0x00U)
 8001a1a:	683b      	ldr	r3, [r7, #0]
 8001a1c:	685b      	ldr	r3, [r3, #4]
 8001a1e:	f403 3300 	and.w	r3, r3, #131072	@ 0x20000
 8001a22:	2b00      	cmp	r3, #0
 8001a24:	d003      	beq.n	8001a2e <HAL_GPIO_Init+0x2d6>
        {
          temp |= iocurrent;
 8001a26:	69ba      	ldr	r2, [r7, #24]
 8001a28:	693b      	ldr	r3, [r7, #16]
 8001a2a:	4313      	orrs	r3, r2
 8001a2c:	61bb      	str	r3, [r7, #24]
        }
        EXTI->EMR = temp;
 8001a2e:	4a1f      	ldr	r2, [pc, #124]	@ (8001aac <HAL_GPIO_Init+0x354>)
 8001a30:	69bb      	ldr	r3, [r7, #24]
 8001a32:	6053      	str	r3, [r2, #4]

        /* Clear EXTI line configuration */
        temp = EXTI->IMR;
 8001a34:	4b1d      	ldr	r3, [pc, #116]	@ (8001aac <HAL_GPIO_Init+0x354>)
 8001a36:	681b      	ldr	r3, [r3, #0]
 8001a38:	61bb      	str	r3, [r7, #24]
        temp &= ~((uint32_t)iocurrent);
 8001a3a:	693b      	ldr	r3, [r7, #16]
 8001a3c:	43db      	mvns	r3, r3
 8001a3e:	69ba      	ldr	r2, [r7, #24]
 8001a40:	4013      	ands	r3, r2
 8001a42:	61bb      	str	r3, [r7, #24]
        if((GPIO_Init->Mode & EXTI_IT) != 0x00U)
 8001a44:	683b      	ldr	r3, [r7, #0]
 8001a46:	685b      	ldr	r3, [r3, #4]
 8001a48:	f403 3380 	and.w	r3, r3, #65536	@ 0x10000
 8001a4c:	2b00      	cmp	r3, #0
 8001a4e:	d003      	beq.n	8001a58 <HAL_GPIO_Init+0x300>
        {
          temp |= iocurrent;
 8001a50:	69ba      	ldr	r2, [r7, #24]
 8001a52:	693b      	ldr	r3, [r7, #16]
 8001a54:	4313      	orrs	r3, r2
 8001a56:	61bb      	str	r3, [r7, #24]
        }
        EXTI->IMR = temp;
 8001a58:	4a14      	ldr	r2, [pc, #80]	@ (8001aac <HAL_GPIO_Init+0x354>)
 8001a5a:	69bb      	ldr	r3, [r7, #24]
 8001a5c:	6013      	str	r3, [r2, #0]
  for(position = 0U; position < GPIO_NUMBER; position++)
 8001a5e:	69fb      	ldr	r3, [r7, #28]
 8001a60:	3301      	adds	r3, #1
 8001a62:	61fb      	str	r3, [r7, #28]
 8001a64:	69fb      	ldr	r3, [r7, #28]
 8001a66:	2b0f      	cmp	r3, #15
 8001a68:	f67f ae84 	bls.w	8001774 <HAL_GPIO_Init+0x1c>
      }
    }
  }
}
 8001a6c:	bf00      	nop
 8001a6e:	bf00      	nop
 8001a70:	3724      	adds	r7, #36	@ 0x24
 8001a72:	46bd      	mov	sp, r7
 8001a74:	f85d 7b04 	ldr.w	r7, [sp], #4
 8001a78:	4770      	bx	lr
 8001a7a:	bf00      	nop
 8001a7c:	40023800 	.word	0x40023800
 8001a80:	40013800 	.word	0x40013800
 8001a84:	40020000 	.word	0x40020000
 8001a88:	40020400 	.word	0x40020400
 8001a8c:	40020800 	.word	0x40020800
 8001a90:	40020c00 	.word	0x40020c00
 8001a94:	40021000 	.word	0x40021000
 8001a98:	40021400 	.word	0x40021400
 8001a9c:	40021800 	.word	0x40021800
 8001aa0:	40021c00 	.word	0x40021c00
 8001aa4:	40022000 	.word	0x40022000
 8001aa8:	40022400 	.word	0x40022400
 8001aac:	40013c00 	.word	0x40013c00

08001ab0 <HAL_GPIO_WritePin>:
  *            @arg GPIO_PIN_RESET: to clear the port pin
  *            @arg GPIO_PIN_SET: to set the port pin
  * @retval None
  */
void HAL_GPIO_WritePin(GPIO_TypeDef* GPIOx, uint16_t GPIO_Pin, GPIO_PinState PinState)
{
 8001ab0:	b480      	push	{r7}
 8001ab2:	b083      	sub	sp, #12
 8001ab4:	af00      	add	r7, sp, #0
 8001ab6:	6078      	str	r0, [r7, #4]
 8001ab8:	460b      	mov	r3, r1
 8001aba:	807b      	strh	r3, [r7, #2]
 8001abc:	4613      	mov	r3, r2
 8001abe:	707b      	strb	r3, [r7, #1]
  /* Check the parameters */
  assert_param(IS_GPIO_PIN(GPIO_Pin));
  assert_param(IS_GPIO_PIN_ACTION(PinState));

  if(PinState != GPIO_PIN_RESET)
 8001ac0:	787b      	ldrb	r3, [r7, #1]
 8001ac2:	2b00      	cmp	r3, #0
 8001ac4:	d003      	beq.n	8001ace <HAL_GPIO_WritePin+0x1e>
  {
    GPIOx->BSRR = GPIO_Pin;
 8001ac6:	887a      	ldrh	r2, [r7, #2]
 8001ac8:	687b      	ldr	r3, [r7, #4]
 8001aca:	619a      	str	r2, [r3, #24]
  }
  else
  {
    GPIOx->BSRR = (uint32_t)GPIO_Pin << 16U;
  }
}
 8001acc:	e003      	b.n	8001ad6 <HAL_GPIO_WritePin+0x26>
    GPIOx->BSRR = (uint32_t)GPIO_Pin << 16U;
 8001ace:	887b      	ldrh	r3, [r7, #2]
 8001ad0:	041a      	lsls	r2, r3, #16
 8001ad2:	687b      	ldr	r3, [r7, #4]
 8001ad4:	619a      	str	r2, [r3, #24]
}
 8001ad6:	bf00      	nop
 8001ad8:	370c      	adds	r7, #12
 8001ada:	46bd      	mov	sp, r7
 8001adc:	f85d 7b04 	ldr.w	r7, [sp], #4
 8001ae0:	4770      	bx	lr

08001ae2 <HAL_PCD_Init>:
  *         parameters in the PCD_InitTypeDef and initialize the associated handle.
  * @param  hpcd PCD handle
  * @retval HAL status
  */
HAL_StatusTypeDef HAL_PCD_Init(PCD_HandleTypeDef *hpcd)
{
 8001ae2:	b580      	push	{r7, lr}
 8001ae4:	b086      	sub	sp, #24
 8001ae6:	af02      	add	r7, sp, #8
 8001ae8:	6078      	str	r0, [r7, #4]
  const USB_OTG_GlobalTypeDef *USBx;
#endif /* defined (USB_OTG_FS) */
  uint8_t i;

  /* Check the PCD handle allocation */
  if (hpcd == NULL)
 8001aea:	687b      	ldr	r3, [r7, #4]
 8001aec:	2b00      	cmp	r3, #0
 8001aee:	d101      	bne.n	8001af4 <HAL_PCD_Init+0x12>
  {
    return HAL_ERROR;
 8001af0:	2301      	movs	r3, #1
 8001af2:	e101      	b.n	8001cf8 <HAL_PCD_Init+0x216>

  /* Check the parameters */
  assert_param(IS_PCD_ALL_INSTANCE(hpcd->Instance));

#if defined (USB_OTG_FS)
  USBx = hpcd->Instance;
 8001af4:	687b      	ldr	r3, [r7, #4]
 8001af6:	681b      	ldr	r3, [r3, #0]
 8001af8:	60bb      	str	r3, [r7, #8]
#endif /* defined (USB_OTG_FS) */

  if (hpcd->State == HAL_PCD_STATE_RESET)
 8001afa:	687b      	ldr	r3, [r7, #4]
 8001afc:	f893 3495 	ldrb.w	r3, [r3, #1173]	@ 0x495
 8001b00:	b2db      	uxtb	r3, r3
 8001b02:	2b00      	cmp	r3, #0
 8001b04:	d106      	bne.n	8001b14 <HAL_PCD_Init+0x32>
  {
    /* Allocate lock resource and initialize it */
    hpcd->Lock = HAL_UNLOCKED;
 8001b06:	687b      	ldr	r3, [r7, #4]
 8001b08:	2200      	movs	r2, #0
 8001b0a:	f883 2494 	strb.w	r2, [r3, #1172]	@ 0x494

    /* Init the low level hardware */
    hpcd->MspInitCallback(hpcd);
#else
    /* Init the low level hardware : GPIO, CLOCK, NVIC... */
    HAL_PCD_MspInit(hpcd);
 8001b0e:	6878      	ldr	r0, [r7, #4]
 8001b10:	f7fe ff80 	bl	8000a14 <HAL_PCD_MspInit>
#endif /* (USE_HAL_PCD_REGISTER_CALLBACKS) */
  }

  hpcd->State = HAL_PCD_STATE_BUSY;
 8001b14:	687b      	ldr	r3, [r7, #4]
 8001b16:	2203      	movs	r2, #3
 8001b18:	f883 2495 	strb.w	r2, [r3, #1173]	@ 0x495

#if defined (USB_OTG_FS)
  /* Disable DMA mode for FS instance */
  if (USBx == USB_OTG_FS)
 8001b1c:	68bb      	ldr	r3, [r7, #8]
 8001b1e:	f1b3 4fa0 	cmp.w	r3, #1342177280	@ 0x50000000
 8001b22:	d102      	bne.n	8001b2a <HAL_PCD_Init+0x48>
  {
    hpcd->Init.dma_enable = 0U;
 8001b24:	687b      	ldr	r3, [r7, #4]
 8001b26:	2200      	movs	r2, #0
 8001b28:	719a      	strb	r2, [r3, #6]
  }
#endif /* defined (USB_OTG_FS) */

  /* Disable the Interrupts */
  __HAL_PCD_DISABLE(hpcd);
 8001b2a:	687b      	ldr	r3, [r7, #4]
 8001b2c:	681b      	ldr	r3, [r3, #0]
 8001b2e:	4618      	mov	r0, r3
 8001b30:	f001 f8a6 	bl	8002c80 <USB_DisableGlobalInt>

  /*Init the Core (common init.) */
  if (USB_CoreInit(hpcd->Instance, hpcd->Init) != HAL_OK)
 8001b34:	687b      	ldr	r3, [r7, #4]
 8001b36:	6818      	ldr	r0, [r3, #0]
 8001b38:	687b      	ldr	r3, [r7, #4]
 8001b3a:	7c1a      	ldrb	r2, [r3, #16]
 8001b3c:	f88d 2000 	strb.w	r2, [sp]
 8001b40:	3304      	adds	r3, #4
 8001b42:	cb0e      	ldmia	r3, {r1, r2, r3}
 8001b44:	f001 f838 	bl	8002bb8 <USB_CoreInit>
 8001b48:	4603      	mov	r3, r0
 8001b4a:	2b00      	cmp	r3, #0
 8001b4c:	d005      	beq.n	8001b5a <HAL_PCD_Init+0x78>
  {
    hpcd->State = HAL_PCD_STATE_ERROR;
 8001b4e:	687b      	ldr	r3, [r7, #4]
 8001b50:	2202      	movs	r2, #2
 8001b52:	f883 2495 	strb.w	r2, [r3, #1173]	@ 0x495
    return HAL_ERROR;
 8001b56:	2301      	movs	r3, #1
 8001b58:	e0ce      	b.n	8001cf8 <HAL_PCD_Init+0x216>
  }

  /* Force Device Mode */
  if (USB_SetCurrentMode(hpcd->Instance, USB_DEVICE_MODE) != HAL_OK)
 8001b5a:	687b      	ldr	r3, [r7, #4]
 8001b5c:	681b      	ldr	r3, [r3, #0]
 8001b5e:	2100      	movs	r1, #0
 8001b60:	4618      	mov	r0, r3
 8001b62:	f001 f89e 	bl	8002ca2 <USB_SetCurrentMode>
 8001b66:	4603      	mov	r3, r0
 8001b68:	2b00      	cmp	r3, #0
 8001b6a:	d005      	beq.n	8001b78 <HAL_PCD_Init+0x96>
  {
    hpcd->State = HAL_PCD_STATE_ERROR;
 8001b6c:	687b      	ldr	r3, [r7, #4]
 8001b6e:	2202      	movs	r2, #2
 8001b70:	f883 2495 	strb.w	r2, [r3, #1173]	@ 0x495
    return HAL_ERROR;
 8001b74:	2301      	movs	r3, #1
 8001b76:	e0bf      	b.n	8001cf8 <HAL_PCD_Init+0x216>
  }

  /* Init endpoints structures */
  for (i = 0U; i < hpcd->Init.dev_endpoints; i++)
 8001b78:	2300      	movs	r3, #0
 8001b7a:	73fb      	strb	r3, [r7, #15]
 8001b7c:	e04a      	b.n	8001c14 <HAL_PCD_Init+0x132>
  {
    /* Init ep structure */
    hpcd->IN_ep[i].is_in = 1U;
 8001b7e:	7bfa      	ldrb	r2, [r7, #15]
 8001b80:	6879      	ldr	r1, [r7, #4]
 8001b82:	4613      	mov	r3, r2
 8001b84:	00db      	lsls	r3, r3, #3
 8001b86:	4413      	add	r3, r2
 8001b88:	009b      	lsls	r3, r3, #2
 8001b8a:	440b      	add	r3, r1
 8001b8c:	3315      	adds	r3, #21
 8001b8e:	2201      	movs	r2, #1
 8001b90:	701a      	strb	r2, [r3, #0]
    hpcd->IN_ep[i].num = i;
 8001b92:	7bfa      	ldrb	r2, [r7, #15]
 8001b94:	6879      	ldr	r1, [r7, #4]
 8001b96:	4613      	mov	r3, r2
 8001b98:	00db      	lsls	r3, r3, #3
 8001b9a:	4413      	add	r3, r2
 8001b9c:	009b      	lsls	r3, r3, #2
 8001b9e:	440b      	add	r3, r1
 8001ba0:	3314      	adds	r3, #20
 8001ba2:	7bfa      	ldrb	r2, [r7, #15]
 8001ba4:	701a      	strb	r2, [r3, #0]
    hpcd->IN_ep[i].tx_fifo_num = i;
 8001ba6:	7bfa      	ldrb	r2, [r7, #15]
 8001ba8:	7bfb      	ldrb	r3, [r7, #15]
 8001baa:	b298      	uxth	r0, r3
 8001bac:	6879      	ldr	r1, [r7, #4]
 8001bae:	4613      	mov	r3, r2
 8001bb0:	00db      	lsls	r3, r3, #3
 8001bb2:	4413      	add	r3, r2
 8001bb4:	009b      	lsls	r3, r3, #2
 8001bb6:	440b      	add	r3, r1
 8001bb8:	332e      	adds	r3, #46	@ 0x2e
 8001bba:	4602      	mov	r2, r0
 8001bbc:	801a      	strh	r2, [r3, #0]
    /* Control until ep is activated */
    hpcd->IN_ep[i].type = EP_TYPE_CTRL;
 8001bbe:	7bfa      	ldrb	r2, [r7, #15]
 8001bc0:	6879      	ldr	r1, [r7, #4]
 8001bc2:	4613      	mov	r3, r2
 8001bc4:	00db      	lsls	r3, r3, #3
 8001bc6:	4413      	add	r3, r2
 8001bc8:	009b      	lsls	r3, r3, #2
 8001bca:	440b      	add	r3, r1
 8001bcc:	3318      	adds	r3, #24
 8001bce:	2200      	movs	r2, #0
 8001bd0:	701a      	strb	r2, [r3, #0]
    hpcd->IN_ep[i].maxpacket = 0U;
 8001bd2:	7bfa      	ldrb	r2, [r7, #15]
 8001bd4:	6879      	ldr	r1, [r7, #4]
 8001bd6:	4613      	mov	r3, r2
 8001bd8:	00db      	lsls	r3, r3, #3
 8001bda:	4413      	add	r3, r2
 8001bdc:	009b      	lsls	r3, r3, #2
 8001bde:	440b      	add	r3, r1
 8001be0:	331c      	adds	r3, #28
 8001be2:	2200      	movs	r2, #0
 8001be4:	601a      	str	r2, [r3, #0]
    hpcd->IN_ep[i].xfer_buff = 0U;
 8001be6:	7bfa      	ldrb	r2, [r7, #15]
 8001be8:	6879      	ldr	r1, [r7, #4]
 8001bea:	4613      	mov	r3, r2
 8001bec:	00db      	lsls	r3, r3, #3
 8001bee:	4413      	add	r3, r2
 8001bf0:	009b      	lsls	r3, r3, #2
 8001bf2:	440b      	add	r3, r1
 8001bf4:	3320      	adds	r3, #32
 8001bf6:	2200      	movs	r2, #0
 8001bf8:	601a      	str	r2, [r3, #0]
    hpcd->IN_ep[i].xfer_len = 0U;
 8001bfa:	7bfa      	ldrb	r2, [r7, #15]
 8001bfc:	6879      	ldr	r1, [r7, #4]
 8001bfe:	4613      	mov	r3, r2
 8001c00:	00db      	lsls	r3, r3, #3
 8001c02:	4413      	add	r3, r2
 8001c04:	009b      	lsls	r3, r3, #2
 8001c06:	440b      	add	r3, r1
 8001c08:	3324      	adds	r3, #36	@ 0x24
 8001c0a:	2200      	movs	r2, #0
 8001c0c:	601a      	str	r2, [r3, #0]
  for (i = 0U; i < hpcd->Init.dev_endpoints; i++)
 8001c0e:	7bfb      	ldrb	r3, [r7, #15]
 8001c10:	3301      	adds	r3, #1
 8001c12:	73fb      	strb	r3, [r7, #15]
 8001c14:	687b      	ldr	r3, [r7, #4]
 8001c16:	791b      	ldrb	r3, [r3, #4]
 8001c18:	7bfa      	ldrb	r2, [r7, #15]
 8001c1a:	429a      	cmp	r2, r3
 8001c1c:	d3af      	bcc.n	8001b7e <HAL_PCD_Init+0x9c>
  }

  for (i = 0U; i < hpcd->Init.dev_endpoints; i++)
 8001c1e:	2300      	movs	r3, #0
 8001c20:	73fb      	strb	r3, [r7, #15]
 8001c22:	e044      	b.n	8001cae <HAL_PCD_Init+0x1cc>
  {
    hpcd->OUT_ep[i].is_in = 0U;
 8001c24:	7bfa      	ldrb	r2, [r7, #15]
 8001c26:	6879      	ldr	r1, [r7, #4]
 8001c28:	4613      	mov	r3, r2
 8001c2a:	00db      	lsls	r3, r3, #3
 8001c2c:	4413      	add	r3, r2
 8001c2e:	009b      	lsls	r3, r3, #2
 8001c30:	440b      	add	r3, r1
 8001c32:	f203 2355 	addw	r3, r3, #597	@ 0x255
 8001c36:	2200      	movs	r2, #0
 8001c38:	701a      	strb	r2, [r3, #0]
    hpcd->OUT_ep[i].num = i;
 8001c3a:	7bfa      	ldrb	r2, [r7, #15]
 8001c3c:	6879      	ldr	r1, [r7, #4]
 8001c3e:	4613      	mov	r3, r2
 8001c40:	00db      	lsls	r3, r3, #3
 8001c42:	4413      	add	r3, r2
 8001c44:	009b      	lsls	r3, r3, #2
 8001c46:	440b      	add	r3, r1
 8001c48:	f503 7315 	add.w	r3, r3, #596	@ 0x254
 8001c4c:	7bfa      	ldrb	r2, [r7, #15]
 8001c4e:	701a      	strb	r2, [r3, #0]
    /* Control until ep is activated */
    hpcd->OUT_ep[i].type = EP_TYPE_CTRL;
 8001c50:	7bfa      	ldrb	r2, [r7, #15]
 8001c52:	6879      	ldr	r1, [r7, #4]
 8001c54:	4613      	mov	r3, r2
 8001c56:	00db      	lsls	r3, r3, #3
 8001c58:	4413      	add	r3, r2
 8001c5a:	009b      	lsls	r3, r3, #2
 8001c5c:	440b      	add	r3, r1
 8001c5e:	f503 7316 	add.w	r3, r3, #600	@ 0x258
 8001c62:	2200      	movs	r2, #0
 8001c64:	701a      	strb	r2, [r3, #0]
    hpcd->OUT_ep[i].maxpacket = 0U;
 8001c66:	7bfa      	ldrb	r2, [r7, #15]
 8001c68:	6879      	ldr	r1, [r7, #4]
 8001c6a:	4613      	mov	r3, r2
 8001c6c:	00db      	lsls	r3, r3, #3
 8001c6e:	4413      	add	r3, r2
 8001c70:	009b      	lsls	r3, r3, #2
 8001c72:	440b      	add	r3, r1
 8001c74:	f503 7317 	add.w	r3, r3, #604	@ 0x25c
 8001c78:	2200      	movs	r2, #0
 8001c7a:	601a      	str	r2, [r3, #0]
    hpcd->OUT_ep[i].xfer_buff = 0U;
 8001c7c:	7bfa      	ldrb	r2, [r7, #15]
 8001c7e:	6879      	ldr	r1, [r7, #4]
 8001c80:	4613      	mov	r3, r2
 8001c82:	00db      	lsls	r3, r3, #3
 8001c84:	4413      	add	r3, r2
 8001c86:	009b      	lsls	r3, r3, #2
 8001c88:	440b      	add	r3, r1
 8001c8a:	f503 7318 	add.w	r3, r3, #608	@ 0x260
 8001c8e:	2200      	movs	r2, #0
 8001c90:	601a      	str	r2, [r3, #0]
    hpcd->OUT_ep[i].xfer_len = 0U;
 8001c92:	7bfa      	ldrb	r2, [r7, #15]
 8001c94:	6879      	ldr	r1, [r7, #4]
 8001c96:	4613      	mov	r3, r2
 8001c98:	00db      	lsls	r3, r3, #3
 8001c9a:	4413      	add	r3, r2
 8001c9c:	009b      	lsls	r3, r3, #2
 8001c9e:	440b      	add	r3, r1
 8001ca0:	f503 7319 	add.w	r3, r3, #612	@ 0x264
 8001ca4:	2200      	movs	r2, #0
 8001ca6:	601a      	str	r2, [r3, #0]
  for (i = 0U; i < hpcd->Init.dev_endpoints; i++)
 8001ca8:	7bfb      	ldrb	r3, [r7, #15]
 8001caa:	3301      	adds	r3, #1
 8001cac:	73fb      	strb	r3, [r7, #15]
 8001cae:	687b      	ldr	r3, [r7, #4]
 8001cb0:	791b      	ldrb	r3, [r3, #4]
 8001cb2:	7bfa      	ldrb	r2, [r7, #15]
 8001cb4:	429a      	cmp	r2, r3
 8001cb6:	d3b5      	bcc.n	8001c24 <HAL_PCD_Init+0x142>
  }

  /* Init Device */
  if (USB_DevInit(hpcd->Instance, hpcd->Init) != HAL_OK)
 8001cb8:	687b      	ldr	r3, [r7, #4]
 8001cba:	6818      	ldr	r0, [r3, #0]
 8001cbc:	687b      	ldr	r3, [r7, #4]
 8001cbe:	7c1a      	ldrb	r2, [r3, #16]
 8001cc0:	f88d 2000 	strb.w	r2, [sp]
 8001cc4:	3304      	adds	r3, #4
 8001cc6:	cb0e      	ldmia	r3, {r1, r2, r3}
 8001cc8:	f001 f838 	bl	8002d3c <USB_DevInit>
 8001ccc:	4603      	mov	r3, r0
 8001cce:	2b00      	cmp	r3, #0
 8001cd0:	d005      	beq.n	8001cde <HAL_PCD_Init+0x1fc>
  {
    hpcd->State = HAL_PCD_STATE_ERROR;
 8001cd2:	687b      	ldr	r3, [r7, #4]
 8001cd4:	2202      	movs	r2, #2
 8001cd6:	f883 2495 	strb.w	r2, [r3, #1173]	@ 0x495
    return HAL_ERROR;
 8001cda:	2301      	movs	r3, #1
 8001cdc:	e00c      	b.n	8001cf8 <HAL_PCD_Init+0x216>
  }

  hpcd->USB_Address = 0U;
 8001cde:	687b      	ldr	r3, [r7, #4]
 8001ce0:	2200      	movs	r2, #0
 8001ce2:	745a      	strb	r2, [r3, #17]
  hpcd->State = HAL_PCD_STATE_READY;
 8001ce4:	687b      	ldr	r3, [r7, #4]
 8001ce6:	2201      	movs	r2, #1
 8001ce8:	f883 2495 	strb.w	r2, [r3, #1173]	@ 0x495
    (void)HAL_PCDEx_ActivateLPM(hpcd);
  }
#endif /* defined(STM32F446xx) || defined(STM32F469xx) || defined(STM32F479xx) || defined(STM32F412Zx) ||
          defined(STM32F412Vx) || defined(STM32F412Rx) || defined(STM32F412Cx) || defined(STM32F413xx) ||
          defined(STM32F423xx) */
  (void)USB_DevDisconnect(hpcd->Instance);
 8001cec:	687b      	ldr	r3, [r7, #4]
 8001cee:	681b      	ldr	r3, [r3, #0]
 8001cf0:	4618      	mov	r0, r3
 8001cf2:	f001 fa00 	bl	80030f6 <USB_DevDisconnect>

  return HAL_OK;
 8001cf6:	2300      	movs	r3, #0
}
 8001cf8:	4618      	mov	r0, r3
 8001cfa:	3710      	adds	r7, #16
 8001cfc:	46bd      	mov	sp, r7
 8001cfe:	bd80      	pop	{r7, pc}

08001d00 <HAL_RCC_OscConfig>:
  *         supported by this API. User should request a transition to HSE Off
  *         first and then HSE On or HSE Bypass.
  * @retval HAL status
  */
__weak HAL_StatusTypeDef HAL_RCC_OscConfig(RCC_OscInitTypeDef  *RCC_OscInitStruct)
{
 8001d00:	b580      	push	{r7, lr}
 8001d02:	b086      	sub	sp, #24
 8001d04:	af00      	add	r7, sp, #0
 8001d06:	6078      	str	r0, [r7, #4]
  uint32_t tickstart;
  uint32_t pll_config;
  /* Check Null pointer */
  if (RCC_OscInitStruct == NULL)
 8001d08:	687b      	ldr	r3, [r7, #4]
 8001d0a:	2b00      	cmp	r3, #0
 8001d0c:	d101      	bne.n	8001d12 <HAL_RCC_OscConfig+0x12>
  {
    return HAL_ERROR;
 8001d0e:	2301      	movs	r3, #1
 8001d10:	e267      	b.n	80021e2 <HAL_RCC_OscConfig+0x4e2>
  }

  /* Check the parameters */
  assert_param(IS_RCC_OSCILLATORTYPE(RCC_OscInitStruct->OscillatorType));
  /*------------------------------- HSE Configuration ------------------------*/
  if (((RCC_OscInitStruct->OscillatorType) & RCC_OSCILLATORTYPE_HSE) == RCC_OSCILLATORTYPE_HSE)
 8001d12:	687b      	ldr	r3, [r7, #4]
 8001d14:	681b      	ldr	r3, [r3, #0]
 8001d16:	f003 0301 	and.w	r3, r3, #1
 8001d1a:	2b00      	cmp	r3, #0
 8001d1c:	d075      	beq.n	8001e0a <HAL_RCC_OscConfig+0x10a>
  {
    /* Check the parameters */
    assert_param(IS_RCC_HSE(RCC_OscInitStruct->HSEState));
    /* When the HSE is used as system clock or clock source for PLL in these cases HSE will not disabled */
    if ((__HAL_RCC_GET_SYSCLK_SOURCE() == RCC_CFGR_SWS_HSE) || \
 8001d1e:	4b88      	ldr	r3, [pc, #544]	@ (8001f40 <HAL_RCC_OscConfig+0x240>)
 8001d20:	689b      	ldr	r3, [r3, #8]
 8001d22:	f003 030c 	and.w	r3, r3, #12
 8001d26:	2b04      	cmp	r3, #4
 8001d28:	d00c      	beq.n	8001d44 <HAL_RCC_OscConfig+0x44>
        ((__HAL_RCC_GET_SYSCLK_SOURCE() == RCC_CFGR_SWS_PLL) && ((RCC->PLLCFGR & RCC_PLLCFGR_PLLSRC) == RCC_PLLCFGR_PLLSRC_HSE)))
 8001d2a:	4b85      	ldr	r3, [pc, #532]	@ (8001f40 <HAL_RCC_OscConfig+0x240>)
 8001d2c:	689b      	ldr	r3, [r3, #8]
 8001d2e:	f003 030c 	and.w	r3, r3, #12
    if ((__HAL_RCC_GET_SYSCLK_SOURCE() == RCC_CFGR_SWS_HSE) || \
 8001d32:	2b08      	cmp	r3, #8
 8001d34:	d112      	bne.n	8001d5c <HAL_RCC_OscConfig+0x5c>
        ((__HAL_RCC_GET_SYSCLK_SOURCE() == RCC_CFGR_SWS_PLL) && ((RCC->PLLCFGR & RCC_PLLCFGR_PLLSRC) == RCC_PLLCFGR_PLLSRC_HSE)))
 8001d36:	4b82      	ldr	r3, [pc, #520]	@ (8001f40 <HAL_RCC_OscConfig+0x240>)
 8001d38:	685b      	ldr	r3, [r3, #4]
 8001d3a:	f403 0380 	and.w	r3, r3, #4194304	@ 0x400000
 8001d3e:	f5b3 0f80 	cmp.w	r3, #4194304	@ 0x400000
 8001d42:	d10b      	bne.n	8001d5c <HAL_RCC_OscConfig+0x5c>
    {
      if ((__HAL_RCC_GET_FLAG(RCC_FLAG_HSERDY) != RESET) && (RCC_OscInitStruct->HSEState == RCC_HSE_OFF))
 8001d44:	4b7e      	ldr	r3, [pc, #504]	@ (8001f40 <HAL_RCC_OscConfig+0x240>)
 8001d46:	681b      	ldr	r3, [r3, #0]
 8001d48:	f403 3300 	and.w	r3, r3, #131072	@ 0x20000
 8001d4c:	2b00      	cmp	r3, #0
 8001d4e:	d05b      	beq.n	8001e08 <HAL_RCC_OscConfig+0x108>
 8001d50:	687b      	ldr	r3, [r7, #4]
 8001d52:	685b      	ldr	r3, [r3, #4]
 8001d54:	2b00      	cmp	r3, #0
 8001d56:	d157      	bne.n	8001e08 <HAL_RCC_OscConfig+0x108>
      {
        return HAL_ERROR;
 8001d58:	2301      	movs	r3, #1
 8001d5a:	e242      	b.n	80021e2 <HAL_RCC_OscConfig+0x4e2>
      }
    }
    else
    {
      /* Set the new HSE configuration ---------------------------------------*/
      __HAL_RCC_HSE_CONFIG(RCC_OscInitStruct->HSEState);
 8001d5c:	687b      	ldr	r3, [r7, #4]
 8001d5e:	685b      	ldr	r3, [r3, #4]
 8001d60:	f5b3 3f80 	cmp.w	r3, #65536	@ 0x10000
 8001d64:	d106      	bne.n	8001d74 <HAL_RCC_OscConfig+0x74>
 8001d66:	4b76      	ldr	r3, [pc, #472]	@ (8001f40 <HAL_RCC_OscConfig+0x240>)
 8001d68:	681b      	ldr	r3, [r3, #0]
 8001d6a:	4a75      	ldr	r2, [pc, #468]	@ (8001f40 <HAL_RCC_OscConfig+0x240>)
 8001d6c:	f443 3380 	orr.w	r3, r3, #65536	@ 0x10000
 8001d70:	6013      	str	r3, [r2, #0]
 8001d72:	e01d      	b.n	8001db0 <HAL_RCC_OscConfig+0xb0>
 8001d74:	687b      	ldr	r3, [r7, #4]
 8001d76:	685b      	ldr	r3, [r3, #4]
 8001d78:	f5b3 2fa0 	cmp.w	r3, #327680	@ 0x50000
 8001d7c:	d10c      	bne.n	8001d98 <HAL_RCC_OscConfig+0x98>
 8001d7e:	4b70      	ldr	r3, [pc, #448]	@ (8001f40 <HAL_RCC_OscConfig+0x240>)
 8001d80:	681b      	ldr	r3, [r3, #0]
 8001d82:	4a6f      	ldr	r2, [pc, #444]	@ (8001f40 <HAL_RCC_OscConfig+0x240>)
 8001d84:	f443 2380 	orr.w	r3, r3, #262144	@ 0x40000
 8001d88:	6013      	str	r3, [r2, #0]
 8001d8a:	4b6d      	ldr	r3, [pc, #436]	@ (8001f40 <HAL_RCC_OscConfig+0x240>)
 8001d8c:	681b      	ldr	r3, [r3, #0]
 8001d8e:	4a6c      	ldr	r2, [pc, #432]	@ (8001f40 <HAL_RCC_OscConfig+0x240>)
 8001d90:	f443 3380 	orr.w	r3, r3, #65536	@ 0x10000
 8001d94:	6013      	str	r3, [r2, #0]
 8001d96:	e00b      	b.n	8001db0 <HAL_RCC_OscConfig+0xb0>
 8001d98:	4b69      	ldr	r3, [pc, #420]	@ (8001f40 <HAL_RCC_OscConfig+0x240>)
 8001d9a:	681b      	ldr	r3, [r3, #0]
 8001d9c:	4a68      	ldr	r2, [pc, #416]	@ (8001f40 <HAL_RCC_OscConfig+0x240>)
 8001d9e:	f423 3380 	bic.w	r3, r3, #65536	@ 0x10000
 8001da2:	6013      	str	r3, [r2, #0]
 8001da4:	4b66      	ldr	r3, [pc, #408]	@ (8001f40 <HAL_RCC_OscConfig+0x240>)
 8001da6:	681b      	ldr	r3, [r3, #0]
 8001da8:	4a65      	ldr	r2, [pc, #404]	@ (8001f40 <HAL_RCC_OscConfig+0x240>)
 8001daa:	f423 2380 	bic.w	r3, r3, #262144	@ 0x40000
 8001dae:	6013      	str	r3, [r2, #0]

      /* Check the HSE State */
      if ((RCC_OscInitStruct->HSEState) != RCC_HSE_OFF)
 8001db0:	687b      	ldr	r3, [r7, #4]
 8001db2:	685b      	ldr	r3, [r3, #4]
 8001db4:	2b00      	cmp	r3, #0
 8001db6:	d013      	beq.n	8001de0 <HAL_RCC_OscConfig+0xe0>
      {
        /* Get Start Tick */
        tickstart = HAL_GetTick();
 8001db8:	f7ff f868 	bl	8000e8c <HAL_GetTick>
 8001dbc:	6138      	str	r0, [r7, #16]

        /* Wait till HSE is ready */
        while (__HAL_RCC_GET_FLAG(RCC_FLAG_HSERDY) == RESET)
 8001dbe:	e008      	b.n	8001dd2 <HAL_RCC_OscConfig+0xd2>
        {
          if ((HAL_GetTick() - tickstart) > HSE_TIMEOUT_VALUE)
 8001dc0:	f7ff f864 	bl	8000e8c <HAL_GetTick>
 8001dc4:	4602      	mov	r2, r0
 8001dc6:	693b      	ldr	r3, [r7, #16]
 8001dc8:	1ad3      	subs	r3, r2, r3
 8001dca:	2b64      	cmp	r3, #100	@ 0x64
 8001dcc:	d901      	bls.n	8001dd2 <HAL_RCC_OscConfig+0xd2>
          {
            return HAL_TIMEOUT;
 8001dce:	2303      	movs	r3, #3
 8001dd0:	e207      	b.n	80021e2 <HAL_RCC_OscConfig+0x4e2>
        while (__HAL_RCC_GET_FLAG(RCC_FLAG_HSERDY) == RESET)
 8001dd2:	4b5b      	ldr	r3, [pc, #364]	@ (8001f40 <HAL_RCC_OscConfig+0x240>)
 8001dd4:	681b      	ldr	r3, [r3, #0]
 8001dd6:	f403 3300 	and.w	r3, r3, #131072	@ 0x20000
 8001dda:	2b00      	cmp	r3, #0
 8001ddc:	d0f0      	beq.n	8001dc0 <HAL_RCC_OscConfig+0xc0>
 8001dde:	e014      	b.n	8001e0a <HAL_RCC_OscConfig+0x10a>
        }
      }
      else
      {
        /* Get Start Tick */
        tickstart = HAL_GetTick();
 8001de0:	f7ff f854 	bl	8000e8c <HAL_GetTick>
 8001de4:	6138      	str	r0, [r7, #16]

        /* Wait till HSE is bypassed or disabled */
        while (__HAL_RCC_GET_FLAG(RCC_FLAG_HSERDY) != RESET)
 8001de6:	e008      	b.n	8001dfa <HAL_RCC_OscConfig+0xfa>
        {
          if ((HAL_GetTick() - tickstart) > HSE_TIMEOUT_VALUE)
 8001de8:	f7ff f850 	bl	8000e8c <HAL_GetTick>
 8001dec:	4602      	mov	r2, r0
 8001dee:	693b      	ldr	r3, [r7, #16]
 8001df0:	1ad3      	subs	r3, r2, r3
 8001df2:	2b64      	cmp	r3, #100	@ 0x64
 8001df4:	d901      	bls.n	8001dfa <HAL_RCC_OscConfig+0xfa>
          {
            return HAL_TIMEOUT;
 8001df6:	2303      	movs	r3, #3
 8001df8:	e1f3      	b.n	80021e2 <HAL_RCC_OscConfig+0x4e2>
        while (__HAL_RCC_GET_FLAG(RCC_FLAG_HSERDY) != RESET)
 8001dfa:	4b51      	ldr	r3, [pc, #324]	@ (8001f40 <HAL_RCC_OscConfig+0x240>)
 8001dfc:	681b      	ldr	r3, [r3, #0]
 8001dfe:	f403 3300 	and.w	r3, r3, #131072	@ 0x20000
 8001e02:	2b00      	cmp	r3, #0
 8001e04:	d1f0      	bne.n	8001de8 <HAL_RCC_OscConfig+0xe8>
 8001e06:	e000      	b.n	8001e0a <HAL_RCC_OscConfig+0x10a>
      if ((__HAL_RCC_GET_FLAG(RCC_FLAG_HSERDY) != RESET) && (RCC_OscInitStruct->HSEState == RCC_HSE_OFF))
 8001e08:	bf00      	nop
        }
      }
    }
  }
  /*----------------------------- HSI Configuration --------------------------*/
  if (((RCC_OscInitStruct->OscillatorType) & RCC_OSCILLATORTYPE_HSI) == RCC_OSCILLATORTYPE_HSI)
 8001e0a:	687b      	ldr	r3, [r7, #4]
 8001e0c:	681b      	ldr	r3, [r3, #0]
 8001e0e:	f003 0302 	and.w	r3, r3, #2
 8001e12:	2b00      	cmp	r3, #0
 8001e14:	d063      	beq.n	8001ede <HAL_RCC_OscConfig+0x1de>
    /* Check the parameters */
    assert_param(IS_RCC_HSI(RCC_OscInitStruct->HSIState));
    assert_param(IS_RCC_CALIBRATION_VALUE(RCC_OscInitStruct->HSICalibrationValue));

    /* Check if HSI is used as system clock or as PLL source when PLL is selected as system clock */
    if ((__HAL_RCC_GET_SYSCLK_SOURCE() == RCC_CFGR_SWS_HSI) || \
 8001e16:	4b4a      	ldr	r3, [pc, #296]	@ (8001f40 <HAL_RCC_OscConfig+0x240>)
 8001e18:	689b      	ldr	r3, [r3, #8]
 8001e1a:	f003 030c 	and.w	r3, r3, #12
 8001e1e:	2b00      	cmp	r3, #0
 8001e20:	d00b      	beq.n	8001e3a <HAL_RCC_OscConfig+0x13a>
        ((__HAL_RCC_GET_SYSCLK_SOURCE() == RCC_CFGR_SWS_PLL) && ((RCC->PLLCFGR & RCC_PLLCFGR_PLLSRC) == RCC_PLLCFGR_PLLSRC_HSI)))
 8001e22:	4b47      	ldr	r3, [pc, #284]	@ (8001f40 <HAL_RCC_OscConfig+0x240>)
 8001e24:	689b      	ldr	r3, [r3, #8]
 8001e26:	f003 030c 	and.w	r3, r3, #12
    if ((__HAL_RCC_GET_SYSCLK_SOURCE() == RCC_CFGR_SWS_HSI) || \
 8001e2a:	2b08      	cmp	r3, #8
 8001e2c:	d11c      	bne.n	8001e68 <HAL_RCC_OscConfig+0x168>
        ((__HAL_RCC_GET_SYSCLK_SOURCE() == RCC_CFGR_SWS_PLL) && ((RCC->PLLCFGR & RCC_PLLCFGR_PLLSRC) == RCC_PLLCFGR_PLLSRC_HSI)))
 8001e2e:	4b44      	ldr	r3, [pc, #272]	@ (8001f40 <HAL_RCC_OscConfig+0x240>)
 8001e30:	685b      	ldr	r3, [r3, #4]
 8001e32:	f403 0380 	and.w	r3, r3, #4194304	@ 0x400000
 8001e36:	2b00      	cmp	r3, #0
 8001e38:	d116      	bne.n	8001e68 <HAL_RCC_OscConfig+0x168>
    {
      /* When HSI is used as system clock it will not disabled */
      if ((__HAL_RCC_GET_FLAG(RCC_FLAG_HSIRDY) != RESET) && (RCC_OscInitStruct->HSIState != RCC_HSI_ON))
 8001e3a:	4b41      	ldr	r3, [pc, #260]	@ (8001f40 <HAL_RCC_OscConfig+0x240>)
 8001e3c:	681b      	ldr	r3, [r3, #0]
 8001e3e:	f003 0302 	and.w	r3, r3, #2
 8001e42:	2b00      	cmp	r3, #0
 8001e44:	d005      	beq.n	8001e52 <HAL_RCC_OscConfig+0x152>
 8001e46:	687b      	ldr	r3, [r7, #4]
 8001e48:	68db      	ldr	r3, [r3, #12]
 8001e4a:	2b01      	cmp	r3, #1
 8001e4c:	d001      	beq.n	8001e52 <HAL_RCC_OscConfig+0x152>
      {
        return HAL_ERROR;
 8001e4e:	2301      	movs	r3, #1
 8001e50:	e1c7      	b.n	80021e2 <HAL_RCC_OscConfig+0x4e2>
      }
      /* Otherwise, just the calibration is allowed */
      else
      {
        /* Adjusts the Internal High Speed oscillator (HSI) calibration value.*/
        __HAL_RCC_HSI_CALIBRATIONVALUE_ADJUST(RCC_OscInitStruct->HSICalibrationValue);
 8001e52:	4b3b      	ldr	r3, [pc, #236]	@ (8001f40 <HAL_RCC_OscConfig+0x240>)
 8001e54:	681b      	ldr	r3, [r3, #0]
 8001e56:	f023 02f8 	bic.w	r2, r3, #248	@ 0xf8
 8001e5a:	687b      	ldr	r3, [r7, #4]
 8001e5c:	691b      	ldr	r3, [r3, #16]
 8001e5e:	00db      	lsls	r3, r3, #3
 8001e60:	4937      	ldr	r1, [pc, #220]	@ (8001f40 <HAL_RCC_OscConfig+0x240>)
 8001e62:	4313      	orrs	r3, r2
 8001e64:	600b      	str	r3, [r1, #0]
      if ((__HAL_RCC_GET_FLAG(RCC_FLAG_HSIRDY) != RESET) && (RCC_OscInitStruct->HSIState != RCC_HSI_ON))
 8001e66:	e03a      	b.n	8001ede <HAL_RCC_OscConfig+0x1de>
      }
    }
    else
    {
      /* Check the HSI State */
      if ((RCC_OscInitStruct->HSIState) != RCC_HSI_OFF)
 8001e68:	687b      	ldr	r3, [r7, #4]
 8001e6a:	68db      	ldr	r3, [r3, #12]
 8001e6c:	2b00      	cmp	r3, #0
 8001e6e:	d020      	beq.n	8001eb2 <HAL_RCC_OscConfig+0x1b2>
      {
        /* Enable the Internal High Speed oscillator (HSI). */
        __HAL_RCC_HSI_ENABLE();
 8001e70:	4b34      	ldr	r3, [pc, #208]	@ (8001f44 <HAL_RCC_OscConfig+0x244>)
 8001e72:	2201      	movs	r2, #1
 8001e74:	601a      	str	r2, [r3, #0]

        /* Get Start Tick*/
        tickstart = HAL_GetTick();
 8001e76:	f7ff f809 	bl	8000e8c <HAL_GetTick>
 8001e7a:	6138      	str	r0, [r7, #16]

        /* Wait till HSI is ready */
        while (__HAL_RCC_GET_FLAG(RCC_FLAG_HSIRDY) == RESET)
 8001e7c:	e008      	b.n	8001e90 <HAL_RCC_OscConfig+0x190>
        {
          if ((HAL_GetTick() - tickstart) > HSI_TIMEOUT_VALUE)
 8001e7e:	f7ff f805 	bl	8000e8c <HAL_GetTick>
 8001e82:	4602      	mov	r2, r0
 8001e84:	693b      	ldr	r3, [r7, #16]
 8001e86:	1ad3      	subs	r3, r2, r3
 8001e88:	2b02      	cmp	r3, #2
 8001e8a:	d901      	bls.n	8001e90 <HAL_RCC_OscConfig+0x190>
          {
            return HAL_TIMEOUT;
 8001e8c:	2303      	movs	r3, #3
 8001e8e:	e1a8      	b.n	80021e2 <HAL_RCC_OscConfig+0x4e2>
        while (__HAL_RCC_GET_FLAG(RCC_FLAG_HSIRDY) == RESET)
 8001e90:	4b2b      	ldr	r3, [pc, #172]	@ (8001f40 <HAL_RCC_OscConfig+0x240>)
 8001e92:	681b      	ldr	r3, [r3, #0]
 8001e94:	f003 0302 	and.w	r3, r3, #2
 8001e98:	2b00      	cmp	r3, #0
 8001e9a:	d0f0      	beq.n	8001e7e <HAL_RCC_OscConfig+0x17e>
          }
        }

        /* Adjusts the Internal High Speed oscillator (HSI) calibration value. */
        __HAL_RCC_HSI_CALIBRATIONVALUE_ADJUST(RCC_OscInitStruct->HSICalibrationValue);
 8001e9c:	4b28      	ldr	r3, [pc, #160]	@ (8001f40 <HAL_RCC_OscConfig+0x240>)
 8001e9e:	681b      	ldr	r3, [r3, #0]
 8001ea0:	f023 02f8 	bic.w	r2, r3, #248	@ 0xf8
 8001ea4:	687b      	ldr	r3, [r7, #4]
 8001ea6:	691b      	ldr	r3, [r3, #16]
 8001ea8:	00db      	lsls	r3, r3, #3
 8001eaa:	4925      	ldr	r1, [pc, #148]	@ (8001f40 <HAL_RCC_OscConfig+0x240>)
 8001eac:	4313      	orrs	r3, r2
 8001eae:	600b      	str	r3, [r1, #0]
 8001eb0:	e015      	b.n	8001ede <HAL_RCC_OscConfig+0x1de>
      }
      else
      {
        /* Disable the Internal High Speed oscillator (HSI). */
        __HAL_RCC_HSI_DISABLE();
 8001eb2:	4b24      	ldr	r3, [pc, #144]	@ (8001f44 <HAL_RCC_OscConfig+0x244>)
 8001eb4:	2200      	movs	r2, #0
 8001eb6:	601a      	str	r2, [r3, #0]

        /* Get Start Tick*/
        tickstart = HAL_GetTick();
 8001eb8:	f7fe ffe8 	bl	8000e8c <HAL_GetTick>
 8001ebc:	6138      	str	r0, [r7, #16]

        /* Wait till HSI is ready */
        while (__HAL_RCC_GET_FLAG(RCC_FLAG_HSIRDY) != RESET)
 8001ebe:	e008      	b.n	8001ed2 <HAL_RCC_OscConfig+0x1d2>
        {
          if ((HAL_GetTick() - tickstart) > HSI_TIMEOUT_VALUE)
 8001ec0:	f7fe ffe4 	bl	8000e8c <HAL_GetTick>
 8001ec4:	4602      	mov	r2, r0
 8001ec6:	693b      	ldr	r3, [r7, #16]
 8001ec8:	1ad3      	subs	r3, r2, r3
 8001eca:	2b02      	cmp	r3, #2
 8001ecc:	d901      	bls.n	8001ed2 <HAL_RCC_OscConfig+0x1d2>
          {
            return HAL_TIMEOUT;
 8001ece:	2303      	movs	r3, #3
 8001ed0:	e187      	b.n	80021e2 <HAL_RCC_OscConfig+0x4e2>
        while (__HAL_RCC_GET_FLAG(RCC_FLAG_HSIRDY) != RESET)
 8001ed2:	4b1b      	ldr	r3, [pc, #108]	@ (8001f40 <HAL_RCC_OscConfig+0x240>)
 8001ed4:	681b      	ldr	r3, [r3, #0]
 8001ed6:	f003 0302 	and.w	r3, r3, #2
 8001eda:	2b00      	cmp	r3, #0
 8001edc:	d1f0      	bne.n	8001ec0 <HAL_RCC_OscConfig+0x1c0>
        }
      }
    }
  }
  /*------------------------------ LSI Configuration -------------------------*/
  if (((RCC_OscInitStruct->OscillatorType) & RCC_OSCILLATORTYPE_LSI) == RCC_OSCILLATORTYPE_LSI)
 8001ede:	687b      	ldr	r3, [r7, #4]
 8001ee0:	681b      	ldr	r3, [r3, #0]
 8001ee2:	f003 0308 	and.w	r3, r3, #8
 8001ee6:	2b00      	cmp	r3, #0
 8001ee8:	d036      	beq.n	8001f58 <HAL_RCC_OscConfig+0x258>
  {
    /* Check the parameters */
    assert_param(IS_RCC_LSI(RCC_OscInitStruct->LSIState));

    /* Check the LSI State */
    if ((RCC_OscInitStruct->LSIState) != RCC_LSI_OFF)
 8001eea:	687b      	ldr	r3, [r7, #4]
 8001eec:	695b      	ldr	r3, [r3, #20]
 8001eee:	2b00      	cmp	r3, #0
 8001ef0:	d016      	beq.n	8001f20 <HAL_RCC_OscConfig+0x220>
    {
      /* Enable the Internal Low Speed oscillator (LSI). */
      __HAL_RCC_LSI_ENABLE();
 8001ef2:	4b15      	ldr	r3, [pc, #84]	@ (8001f48 <HAL_RCC_OscConfig+0x248>)
 8001ef4:	2201      	movs	r2, #1
 8001ef6:	601a      	str	r2, [r3, #0]

      /* Get Start Tick*/
      tickstart = HAL_GetTick();
 8001ef8:	f7fe ffc8 	bl	8000e8c <HAL_GetTick>
 8001efc:	6138      	str	r0, [r7, #16]

      /* Wait till LSI is ready */
      while (__HAL_RCC_GET_FLAG(RCC_FLAG_LSIRDY) == RESET)
 8001efe:	e008      	b.n	8001f12 <HAL_RCC_OscConfig+0x212>
      {
        if ((HAL_GetTick() - tickstart) > LSI_TIMEOUT_VALUE)
 8001f00:	f7fe ffc4 	bl	8000e8c <HAL_GetTick>
 8001f04:	4602      	mov	r2, r0
 8001f06:	693b      	ldr	r3, [r7, #16]
 8001f08:	1ad3      	subs	r3, r2, r3
 8001f0a:	2b02      	cmp	r3, #2
 8001f0c:	d901      	bls.n	8001f12 <HAL_RCC_OscConfig+0x212>
        {
          return HAL_TIMEOUT;
 8001f0e:	2303      	movs	r3, #3
 8001f10:	e167      	b.n	80021e2 <HAL_RCC_OscConfig+0x4e2>
      while (__HAL_RCC_GET_FLAG(RCC_FLAG_LSIRDY) == RESET)
 8001f12:	4b0b      	ldr	r3, [pc, #44]	@ (8001f40 <HAL_RCC_OscConfig+0x240>)
 8001f14:	6f5b      	ldr	r3, [r3, #116]	@ 0x74
 8001f16:	f003 0302 	and.w	r3, r3, #2
 8001f1a:	2b00      	cmp	r3, #0
 8001f1c:	d0f0      	beq.n	8001f00 <HAL_RCC_OscConfig+0x200>
 8001f1e:	e01b      	b.n	8001f58 <HAL_RCC_OscConfig+0x258>
      }
    }
    else
    {
      /* Disable the Internal Low Speed oscillator (LSI). */
      __HAL_RCC_LSI_DISABLE();
 8001f20:	4b09      	ldr	r3, [pc, #36]	@ (8001f48 <HAL_RCC_OscConfig+0x248>)
 8001f22:	2200      	movs	r2, #0
 8001f24:	601a      	str	r2, [r3, #0]

      /* Get Start Tick */
      tickstart = HAL_GetTick();
 8001f26:	f7fe ffb1 	bl	8000e8c <HAL_GetTick>
 8001f2a:	6138      	str	r0, [r7, #16]

      /* Wait till LSI is ready */
      while (__HAL_RCC_GET_FLAG(RCC_FLAG_LSIRDY) != RESET)
 8001f2c:	e00e      	b.n	8001f4c <HAL_RCC_OscConfig+0x24c>
      {
        if ((HAL_GetTick() - tickstart) > LSI_TIMEOUT_VALUE)
 8001f2e:	f7fe ffad 	bl	8000e8c <HAL_GetTick>
 8001f32:	4602      	mov	r2, r0
 8001f34:	693b      	ldr	r3, [r7, #16]
 8001f36:	1ad3      	subs	r3, r2, r3
 8001f38:	2b02      	cmp	r3, #2
 8001f3a:	d907      	bls.n	8001f4c <HAL_RCC_OscConfig+0x24c>
        {
          return HAL_TIMEOUT;
 8001f3c:	2303      	movs	r3, #3
 8001f3e:	e150      	b.n	80021e2 <HAL_RCC_OscConfig+0x4e2>
 8001f40:	40023800 	.word	0x40023800
 8001f44:	42470000 	.word	0x42470000
 8001f48:	42470e80 	.word	0x42470e80
      while (__HAL_RCC_GET_FLAG(RCC_FLAG_LSIRDY) != RESET)
 8001f4c:	4b88      	ldr	r3, [pc, #544]	@ (8002170 <HAL_RCC_OscConfig+0x470>)
 8001f4e:	6f5b      	ldr	r3, [r3, #116]	@ 0x74
 8001f50:	f003 0302 	and.w	r3, r3, #2
 8001f54:	2b00      	cmp	r3, #0
 8001f56:	d1ea      	bne.n	8001f2e <HAL_RCC_OscConfig+0x22e>
        }
      }
    }
  }
  /*------------------------------ LSE Configuration -------------------------*/
  if (((RCC_OscInitStruct->OscillatorType) & RCC_OSCILLATORTYPE_LSE) == RCC_OSCILLATORTYPE_LSE)
 8001f58:	687b      	ldr	r3, [r7, #4]
 8001f5a:	681b      	ldr	r3, [r3, #0]
 8001f5c:	f003 0304 	and.w	r3, r3, #4
 8001f60:	2b00      	cmp	r3, #0
 8001f62:	f000 8097 	beq.w	8002094 <HAL_RCC_OscConfig+0x394>
  {
    FlagStatus       pwrclkchanged = RESET;
 8001f66:	2300      	movs	r3, #0
 8001f68:	75fb      	strb	r3, [r7, #23]
    /* Check the parameters */
    assert_param(IS_RCC_LSE(RCC_OscInitStruct->LSEState));

    /* Update LSE configuration in Backup Domain control register    */
    /* Requires to enable write access to Backup Domain of necessary */
    if (__HAL_RCC_PWR_IS_CLK_DISABLED())
 8001f6a:	4b81      	ldr	r3, [pc, #516]	@ (8002170 <HAL_RCC_OscConfig+0x470>)
 8001f6c:	6c1b      	ldr	r3, [r3, #64]	@ 0x40
 8001f6e:	f003 5380 	and.w	r3, r3, #268435456	@ 0x10000000
 8001f72:	2b00      	cmp	r3, #0
 8001f74:	d10f      	bne.n	8001f96 <HAL_RCC_OscConfig+0x296>
    {
      __HAL_RCC_PWR_CLK_ENABLE();
 8001f76:	2300      	movs	r3, #0
 8001f78:	60bb      	str	r3, [r7, #8]
 8001f7a:	4b7d      	ldr	r3, [pc, #500]	@ (8002170 <HAL_RCC_OscConfig+0x470>)
 8001f7c:	6c1b      	ldr	r3, [r3, #64]	@ 0x40
 8001f7e:	4a7c      	ldr	r2, [pc, #496]	@ (8002170 <HAL_RCC_OscConfig+0x470>)
 8001f80:	f043 5380 	orr.w	r3, r3, #268435456	@ 0x10000000
 8001f84:	6413      	str	r3, [r2, #64]	@ 0x40
 8001f86:	4b7a      	ldr	r3, [pc, #488]	@ (8002170 <HAL_RCC_OscConfig+0x470>)
 8001f88:	6c1b      	ldr	r3, [r3, #64]	@ 0x40
 8001f8a:	f003 5380 	and.w	r3, r3, #268435456	@ 0x10000000
 8001f8e:	60bb      	str	r3, [r7, #8]
 8001f90:	68bb      	ldr	r3, [r7, #8]
      pwrclkchanged = SET;
 8001f92:	2301      	movs	r3, #1
 8001f94:	75fb      	strb	r3, [r7, #23]
    }

    if (HAL_IS_BIT_CLR(PWR->CR, PWR_CR_DBP))
 8001f96:	4b77      	ldr	r3, [pc, #476]	@ (8002174 <HAL_RCC_OscConfig+0x474>)
 8001f98:	681b      	ldr	r3, [r3, #0]
 8001f9a:	f403 7380 	and.w	r3, r3, #256	@ 0x100
 8001f9e:	2b00      	cmp	r3, #0
 8001fa0:	d118      	bne.n	8001fd4 <HAL_RCC_OscConfig+0x2d4>
    {
      /* Enable write access to Backup domain */
      SET_BIT(PWR->CR, PWR_CR_DBP);
 8001fa2:	4b74      	ldr	r3, [pc, #464]	@ (8002174 <HAL_RCC_OscConfig+0x474>)
 8001fa4:	681b      	ldr	r3, [r3, #0]
 8001fa6:	4a73      	ldr	r2, [pc, #460]	@ (8002174 <HAL_RCC_OscConfig+0x474>)
 8001fa8:	f443 7380 	orr.w	r3, r3, #256	@ 0x100
 8001fac:	6013      	str	r3, [r2, #0]

      /* Wait for Backup domain Write protection disable */
      tickstart = HAL_GetTick();
 8001fae:	f7fe ff6d 	bl	8000e8c <HAL_GetTick>
 8001fb2:	6138      	str	r0, [r7, #16]

      while (HAL_IS_BIT_CLR(PWR->CR, PWR_CR_DBP))
 8001fb4:	e008      	b.n	8001fc8 <HAL_RCC_OscConfig+0x2c8>
      {
        if ((HAL_GetTick() - tickstart) > RCC_DBP_TIMEOUT_VALUE)
 8001fb6:	f7fe ff69 	bl	8000e8c <HAL_GetTick>
 8001fba:	4602      	mov	r2, r0
 8001fbc:	693b      	ldr	r3, [r7, #16]
 8001fbe:	1ad3      	subs	r3, r2, r3
 8001fc0:	2b02      	cmp	r3, #2
 8001fc2:	d901      	bls.n	8001fc8 <HAL_RCC_OscConfig+0x2c8>
        {
          return HAL_TIMEOUT;
 8001fc4:	2303      	movs	r3, #3
 8001fc6:	e10c      	b.n	80021e2 <HAL_RCC_OscConfig+0x4e2>
      while (HAL_IS_BIT_CLR(PWR->CR, PWR_CR_DBP))
 8001fc8:	4b6a      	ldr	r3, [pc, #424]	@ (8002174 <HAL_RCC_OscConfig+0x474>)
 8001fca:	681b      	ldr	r3, [r3, #0]
 8001fcc:	f403 7380 	and.w	r3, r3, #256	@ 0x100
 8001fd0:	2b00      	cmp	r3, #0
 8001fd2:	d0f0      	beq.n	8001fb6 <HAL_RCC_OscConfig+0x2b6>
        }
      }
    }

    /* Set the new LSE configuration -----------------------------------------*/
    __HAL_RCC_LSE_CONFIG(RCC_OscInitStruct->LSEState);
 8001fd4:	687b      	ldr	r3, [r7, #4]
 8001fd6:	689b      	ldr	r3, [r3, #8]
 8001fd8:	2b01      	cmp	r3, #1
 8001fda:	d106      	bne.n	8001fea <HAL_RCC_OscConfig+0x2ea>
 8001fdc:	4b64      	ldr	r3, [pc, #400]	@ (8002170 <HAL_RCC_OscConfig+0x470>)
 8001fde:	6f1b      	ldr	r3, [r3, #112]	@ 0x70
 8001fe0:	4a63      	ldr	r2, [pc, #396]	@ (8002170 <HAL_RCC_OscConfig+0x470>)
 8001fe2:	f043 0301 	orr.w	r3, r3, #1
 8001fe6:	6713      	str	r3, [r2, #112]	@ 0x70
 8001fe8:	e01c      	b.n	8002024 <HAL_RCC_OscConfig+0x324>
 8001fea:	687b      	ldr	r3, [r7, #4]
 8001fec:	689b      	ldr	r3, [r3, #8]
 8001fee:	2b05      	cmp	r3, #5
 8001ff0:	d10c      	bne.n	800200c <HAL_RCC_OscConfig+0x30c>
 8001ff2:	4b5f      	ldr	r3, [pc, #380]	@ (8002170 <HAL_RCC_OscConfig+0x470>)
 8001ff4:	6f1b      	ldr	r3, [r3, #112]	@ 0x70
 8001ff6:	4a5e      	ldr	r2, [pc, #376]	@ (8002170 <HAL_RCC_OscConfig+0x470>)
 8001ff8:	f043 0304 	orr.w	r3, r3, #4
 8001ffc:	6713      	str	r3, [r2, #112]	@ 0x70
 8001ffe:	4b5c      	ldr	r3, [pc, #368]	@ (8002170 <HAL_RCC_OscConfig+0x470>)
 8002000:	6f1b      	ldr	r3, [r3, #112]	@ 0x70
 8002002:	4a5b      	ldr	r2, [pc, #364]	@ (8002170 <HAL_RCC_OscConfig+0x470>)
 8002004:	f043 0301 	orr.w	r3, r3, #1
 8002008:	6713      	str	r3, [r2, #112]	@ 0x70
 800200a:	e00b      	b.n	8002024 <HAL_RCC_OscConfig+0x324>
 800200c:	4b58      	ldr	r3, [pc, #352]	@ (8002170 <HAL_RCC_OscConfig+0x470>)
 800200e:	6f1b      	ldr	r3, [r3, #112]	@ 0x70
 8002010:	4a57      	ldr	r2, [pc, #348]	@ (8002170 <HAL_RCC_OscConfig+0x470>)
 8002012:	f023 0301 	bic.w	r3, r3, #1
 8002016:	6713      	str	r3, [r2, #112]	@ 0x70
 8002018:	4b55      	ldr	r3, [pc, #340]	@ (8002170 <HAL_RCC_OscConfig+0x470>)
 800201a:	6f1b      	ldr	r3, [r3, #112]	@ 0x70
 800201c:	4a54      	ldr	r2, [pc, #336]	@ (8002170 <HAL_RCC_OscConfig+0x470>)
 800201e:	f023 0304 	bic.w	r3, r3, #4
 8002022:	6713      	str	r3, [r2, #112]	@ 0x70
    /* Check the LSE State */
    if ((RCC_OscInitStruct->LSEState) != RCC_LSE_OFF)
 8002024:	687b      	ldr	r3, [r7, #4]
 8002026:	689b      	ldr	r3, [r3, #8]
 8002028:	2b00      	cmp	r3, #0
 800202a:	d015      	beq.n	8002058 <HAL_RCC_OscConfig+0x358>
    {
      /* Get Start Tick*/
      tickstart = HAL_GetTick();
 800202c:	f7fe ff2e 	bl	8000e8c <HAL_GetTick>
 8002030:	6138      	str	r0, [r7, #16]

      /* Wait till LSE is ready */
      while (__HAL_RCC_GET_FLAG(RCC_FLAG_LSERDY) == RESET)
 8002032:	e00a      	b.n	800204a <HAL_RCC_OscConfig+0x34a>
      {
        if ((HAL_GetTick() - tickstart) > RCC_LSE_TIMEOUT_VALUE)
 8002034:	f7fe ff2a 	bl	8000e8c <HAL_GetTick>
 8002038:	4602      	mov	r2, r0
 800203a:	693b      	ldr	r3, [r7, #16]
 800203c:	1ad3      	subs	r3, r2, r3
 800203e:	f241 3288 	movw	r2, #5000	@ 0x1388
 8002042:	4293      	cmp	r3, r2
 8002044:	d901      	bls.n	800204a <HAL_RCC_OscConfig+0x34a>
        {
          return HAL_TIMEOUT;
 8002046:	2303      	movs	r3, #3
 8002048:	e0cb      	b.n	80021e2 <HAL_RCC_OscConfig+0x4e2>
      while (__HAL_RCC_GET_FLAG(RCC_FLAG_LSERDY) == RESET)
 800204a:	4b49      	ldr	r3, [pc, #292]	@ (8002170 <HAL_RCC_OscConfig+0x470>)
 800204c:	6f1b      	ldr	r3, [r3, #112]	@ 0x70
 800204e:	f003 0302 	and.w	r3, r3, #2
 8002052:	2b00      	cmp	r3, #0
 8002054:	d0ee      	beq.n	8002034 <HAL_RCC_OscConfig+0x334>
 8002056:	e014      	b.n	8002082 <HAL_RCC_OscConfig+0x382>
      }
    }
    else
    {
      /* Get Start Tick */
      tickstart = HAL_GetTick();
 8002058:	f7fe ff18 	bl	8000e8c <HAL_GetTick>
 800205c:	6138      	str	r0, [r7, #16]

      /* Wait till LSE is ready */
      while (__HAL_RCC_GET_FLAG(RCC_FLAG_LSERDY) != RESET)
 800205e:	e00a      	b.n	8002076 <HAL_RCC_OscConfig+0x376>
      {
        if ((HAL_GetTick() - tickstart) > RCC_LSE_TIMEOUT_VALUE)
 8002060:	f7fe ff14 	bl	8000e8c <HAL_GetTick>
 8002064:	4602      	mov	r2, r0
 8002066:	693b      	ldr	r3, [r7, #16]
 8002068:	1ad3      	subs	r3, r2, r3
 800206a:	f241 3288 	movw	r2, #5000	@ 0x1388
 800206e:	4293      	cmp	r3, r2
 8002070:	d901      	bls.n	8002076 <HAL_RCC_OscConfig+0x376>
        {
          return HAL_TIMEOUT;
 8002072:	2303      	movs	r3, #3
 8002074:	e0b5      	b.n	80021e2 <HAL_RCC_OscConfig+0x4e2>
      while (__HAL_RCC_GET_FLAG(RCC_FLAG_LSERDY) != RESET)
 8002076:	4b3e      	ldr	r3, [pc, #248]	@ (8002170 <HAL_RCC_OscConfig+0x470>)
 8002078:	6f1b      	ldr	r3, [r3, #112]	@ 0x70
 800207a:	f003 0302 	and.w	r3, r3, #2
 800207e:	2b00      	cmp	r3, #0
 8002080:	d1ee      	bne.n	8002060 <HAL_RCC_OscConfig+0x360>
        }
      }
    }

    /* Restore clock configuration if changed */
    if (pwrclkchanged == SET)
 8002082:	7dfb      	ldrb	r3, [r7, #23]
 8002084:	2b01      	cmp	r3, #1
 8002086:	d105      	bne.n	8002094 <HAL_RCC_OscConfig+0x394>
    {
      __HAL_RCC_PWR_CLK_DISABLE();
 8002088:	4b39      	ldr	r3, [pc, #228]	@ (8002170 <HAL_RCC_OscConfig+0x470>)
 800208a:	6c1b      	ldr	r3, [r3, #64]	@ 0x40
 800208c:	4a38      	ldr	r2, [pc, #224]	@ (8002170 <HAL_RCC_OscConfig+0x470>)
 800208e:	f023 5380 	bic.w	r3, r3, #268435456	@ 0x10000000
 8002092:	6413      	str	r3, [r2, #64]	@ 0x40
    }
  }
  /*-------------------------------- PLL Configuration -----------------------*/
  /* Check the parameters */
  assert_param(IS_RCC_PLL(RCC_OscInitStruct->PLL.PLLState));
  if ((RCC_OscInitStruct->PLL.PLLState) != RCC_PLL_NONE)
 8002094:	687b      	ldr	r3, [r7, #4]
 8002096:	699b      	ldr	r3, [r3, #24]
 8002098:	2b00      	cmp	r3, #0
 800209a:	f000 80a1 	beq.w	80021e0 <HAL_RCC_OscConfig+0x4e0>
  {
    /* Check if the PLL is used as system clock or not */
    if (__HAL_RCC_GET_SYSCLK_SOURCE() != RCC_CFGR_SWS_PLL)
 800209e:	4b34      	ldr	r3, [pc, #208]	@ (8002170 <HAL_RCC_OscConfig+0x470>)
 80020a0:	689b      	ldr	r3, [r3, #8]
 80020a2:	f003 030c 	and.w	r3, r3, #12
 80020a6:	2b08      	cmp	r3, #8
 80020a8:	d05c      	beq.n	8002164 <HAL_RCC_OscConfig+0x464>
    {
      if ((RCC_OscInitStruct->PLL.PLLState) == RCC_PLL_ON)
 80020aa:	687b      	ldr	r3, [r7, #4]
 80020ac:	699b      	ldr	r3, [r3, #24]
 80020ae:	2b02      	cmp	r3, #2
 80020b0:	d141      	bne.n	8002136 <HAL_RCC_OscConfig+0x436>
        assert_param(IS_RCC_PLLN_VALUE(RCC_OscInitStruct->PLL.PLLN));
        assert_param(IS_RCC_PLLP_VALUE(RCC_OscInitStruct->PLL.PLLP));
        assert_param(IS_RCC_PLLQ_VALUE(RCC_OscInitStruct->PLL.PLLQ));

        /* Disable the main PLL. */
        __HAL_RCC_PLL_DISABLE();
 80020b2:	4b31      	ldr	r3, [pc, #196]	@ (8002178 <HAL_RCC_OscConfig+0x478>)
 80020b4:	2200      	movs	r2, #0
 80020b6:	601a      	str	r2, [r3, #0]

        /* Get Start Tick */
        tickstart = HAL_GetTick();
 80020b8:	f7fe fee8 	bl	8000e8c <HAL_GetTick>
 80020bc:	6138      	str	r0, [r7, #16]

        /* Wait till PLL is disabled */
        while (__HAL_RCC_GET_FLAG(RCC_FLAG_PLLRDY) != RESET)
 80020be:	e008      	b.n	80020d2 <HAL_RCC_OscConfig+0x3d2>
        {
          if ((HAL_GetTick() - tickstart) > PLL_TIMEOUT_VALUE)
 80020c0:	f7fe fee4 	bl	8000e8c <HAL_GetTick>
 80020c4:	4602      	mov	r2, r0
 80020c6:	693b      	ldr	r3, [r7, #16]
 80020c8:	1ad3      	subs	r3, r2, r3
 80020ca:	2b02      	cmp	r3, #2
 80020cc:	d901      	bls.n	80020d2 <HAL_RCC_OscConfig+0x3d2>
          {
            return HAL_TIMEOUT;
 80020ce:	2303      	movs	r3, #3
 80020d0:	e087      	b.n	80021e2 <HAL_RCC_OscConfig+0x4e2>
        while (__HAL_RCC_GET_FLAG(RCC_FLAG_PLLRDY) != RESET)
 80020d2:	4b27      	ldr	r3, [pc, #156]	@ (8002170 <HAL_RCC_OscConfig+0x470>)
 80020d4:	681b      	ldr	r3, [r3, #0]
 80020d6:	f003 7300 	and.w	r3, r3, #33554432	@ 0x2000000
 80020da:	2b00      	cmp	r3, #0
 80020dc:	d1f0      	bne.n	80020c0 <HAL_RCC_OscConfig+0x3c0>
          }
        }

        /* Configure the main PLL clock source, multiplication and division factors. */
        WRITE_REG(RCC->PLLCFGR, (RCC_OscInitStruct->PLL.PLLSource                                            | \
 80020de:	687b      	ldr	r3, [r7, #4]
 80020e0:	69da      	ldr	r2, [r3, #28]
 80020e2:	687b      	ldr	r3, [r7, #4]
 80020e4:	6a1b      	ldr	r3, [r3, #32]
 80020e6:	431a      	orrs	r2, r3
 80020e8:	687b      	ldr	r3, [r7, #4]
 80020ea:	6a5b      	ldr	r3, [r3, #36]	@ 0x24
 80020ec:	019b      	lsls	r3, r3, #6
 80020ee:	431a      	orrs	r2, r3
 80020f0:	687b      	ldr	r3, [r7, #4]
 80020f2:	6a9b      	ldr	r3, [r3, #40]	@ 0x28
 80020f4:	085b      	lsrs	r3, r3, #1
 80020f6:	3b01      	subs	r3, #1
 80020f8:	041b      	lsls	r3, r3, #16
 80020fa:	431a      	orrs	r2, r3
 80020fc:	687b      	ldr	r3, [r7, #4]
 80020fe:	6adb      	ldr	r3, [r3, #44]	@ 0x2c
 8002100:	061b      	lsls	r3, r3, #24
 8002102:	491b      	ldr	r1, [pc, #108]	@ (8002170 <HAL_RCC_OscConfig+0x470>)
 8002104:	4313      	orrs	r3, r2
 8002106:	604b      	str	r3, [r1, #4]
                                 RCC_OscInitStruct->PLL.PLLM                                                 | \
                                 (RCC_OscInitStruct->PLL.PLLN << RCC_PLLCFGR_PLLN_Pos)             | \
                                 (((RCC_OscInitStruct->PLL.PLLP >> 1U) - 1U) << RCC_PLLCFGR_PLLP_Pos) | \
                                 (RCC_OscInitStruct->PLL.PLLQ << RCC_PLLCFGR_PLLQ_Pos)));
        /* Enable the main PLL. */
        __HAL_RCC_PLL_ENABLE();
 8002108:	4b1b      	ldr	r3, [pc, #108]	@ (8002178 <HAL_RCC_OscConfig+0x478>)
 800210a:	2201      	movs	r2, #1
 800210c:	601a      	str	r2, [r3, #0]

        /* Get Start Tick */
        tickstart = HAL_GetTick();
 800210e:	f7fe febd 	bl	8000e8c <HAL_GetTick>
 8002112:	6138      	str	r0, [r7, #16]

        /* Wait till PLL is ready */
        while (__HAL_RCC_GET_FLAG(RCC_FLAG_PLLRDY) == RESET)
 8002114:	e008      	b.n	8002128 <HAL_RCC_OscConfig+0x428>
        {
          if ((HAL_GetTick() - tickstart) > PLL_TIMEOUT_VALUE)
 8002116:	f7fe feb9 	bl	8000e8c <HAL_GetTick>
 800211a:	4602      	mov	r2, r0
 800211c:	693b      	ldr	r3, [r7, #16]
 800211e:	1ad3      	subs	r3, r2, r3
 8002120:	2b02      	cmp	r3, #2
 8002122:	d901      	bls.n	8002128 <HAL_RCC_OscConfig+0x428>
          {
            return HAL_TIMEOUT;
 8002124:	2303      	movs	r3, #3
 8002126:	e05c      	b.n	80021e2 <HAL_RCC_OscConfig+0x4e2>
        while (__HAL_RCC_GET_FLAG(RCC_FLAG_PLLRDY) == RESET)
 8002128:	4b11      	ldr	r3, [pc, #68]	@ (8002170 <HAL_RCC_OscConfig+0x470>)
 800212a:	681b      	ldr	r3, [r3, #0]
 800212c:	f003 7300 	and.w	r3, r3, #33554432	@ 0x2000000
 8002130:	2b00      	cmp	r3, #0
 8002132:	d0f0      	beq.n	8002116 <HAL_RCC_OscConfig+0x416>
 8002134:	e054      	b.n	80021e0 <HAL_RCC_OscConfig+0x4e0>
        }
      }
      else
      {
        /* Disable the main PLL. */
        __HAL_RCC_PLL_DISABLE();
 8002136:	4b10      	ldr	r3, [pc, #64]	@ (8002178 <HAL_RCC_OscConfig+0x478>)
 8002138:	2200      	movs	r2, #0
 800213a:	601a      	str	r2, [r3, #0]

        /* Get Start Tick */
        tickstart = HAL_GetTick();
 800213c:	f7fe fea6 	bl	8000e8c <HAL_GetTick>
 8002140:	6138      	str	r0, [r7, #16]

        /* Wait till PLL is disabled */
        while (__HAL_RCC_GET_FLAG(RCC_FLAG_PLLRDY) != RESET)
 8002142:	e008      	b.n	8002156 <HAL_RCC_OscConfig+0x456>
        {
          if ((HAL_GetTick() - tickstart) > PLL_TIMEOUT_VALUE)
 8002144:	f7fe fea2 	bl	8000e8c <HAL_GetTick>
 8002148:	4602      	mov	r2, r0
 800214a:	693b      	ldr	r3, [r7, #16]
 800214c:	1ad3      	subs	r3, r2, r3
 800214e:	2b02      	cmp	r3, #2
 8002150:	d901      	bls.n	8002156 <HAL_RCC_OscConfig+0x456>
          {
            return HAL_TIMEOUT;
 8002152:	2303      	movs	r3, #3
 8002154:	e045      	b.n	80021e2 <HAL_RCC_OscConfig+0x4e2>
        while (__HAL_RCC_GET_FLAG(RCC_FLAG_PLLRDY) != RESET)
 8002156:	4b06      	ldr	r3, [pc, #24]	@ (8002170 <HAL_RCC_OscConfig+0x470>)
 8002158:	681b      	ldr	r3, [r3, #0]
 800215a:	f003 7300 	and.w	r3, r3, #33554432	@ 0x2000000
 800215e:	2b00      	cmp	r3, #0
 8002160:	d1f0      	bne.n	8002144 <HAL_RCC_OscConfig+0x444>
 8002162:	e03d      	b.n	80021e0 <HAL_RCC_OscConfig+0x4e0>
      }
    }
    else
    {
      /* Check if there is a request to disable the PLL used as System clock source */
      if ((RCC_OscInitStruct->PLL.PLLState) == RCC_PLL_OFF)
 8002164:	687b      	ldr	r3, [r7, #4]
 8002166:	699b      	ldr	r3, [r3, #24]
 8002168:	2b01      	cmp	r3, #1
 800216a:	d107      	bne.n	800217c <HAL_RCC_OscConfig+0x47c>
      {
        return HAL_ERROR;
 800216c:	2301      	movs	r3, #1
 800216e:	e038      	b.n	80021e2 <HAL_RCC_OscConfig+0x4e2>
 8002170:	40023800 	.word	0x40023800
 8002174:	40007000 	.word	0x40007000
 8002178:	42470060 	.word	0x42470060
      }
      else
      {
        /* Do not return HAL_ERROR if request repeats the current configuration */
        pll_config = RCC->PLLCFGR;
 800217c:	4b1b      	ldr	r3, [pc, #108]	@ (80021ec <HAL_RCC_OscConfig+0x4ec>)
 800217e:	685b      	ldr	r3, [r3, #4]
 8002180:	60fb      	str	r3, [r7, #12]
            (READ_BIT(pll_config, RCC_PLLCFGR_PLLN) != (RCC_OscInitStruct->PLL.PLLN) << RCC_PLLCFGR_PLLN_Pos) ||
            (READ_BIT(pll_config, RCC_PLLCFGR_PLLP) != (((RCC_OscInitStruct->PLL.PLLP >> 1U) - 1U)) << RCC_PLLCFGR_PLLP_Pos) ||
            (READ_BIT(pll_config, RCC_PLLCFGR_PLLQ) != (RCC_OscInitStruct->PLL.PLLQ << RCC_PLLCFGR_PLLQ_Pos)) ||
            (READ_BIT(pll_config, RCC_PLLCFGR_PLLR) != (RCC_OscInitStruct->PLL.PLLR << RCC_PLLCFGR_PLLR_Pos)))
#else
        if (((RCC_OscInitStruct->PLL.PLLState) == RCC_PLL_OFF) ||
 8002182:	687b      	ldr	r3, [r7, #4]
 8002184:	699b      	ldr	r3, [r3, #24]
 8002186:	2b01      	cmp	r3, #1
 8002188:	d028      	beq.n	80021dc <HAL_RCC_OscConfig+0x4dc>
            (READ_BIT(pll_config, RCC_PLLCFGR_PLLSRC) != RCC_OscInitStruct->PLL.PLLSource) ||
 800218a:	68fb      	ldr	r3, [r7, #12]
 800218c:	f403 0280 	and.w	r2, r3, #4194304	@ 0x400000
 8002190:	687b      	ldr	r3, [r7, #4]
 8002192:	69db      	ldr	r3, [r3, #28]
        if (((RCC_OscInitStruct->PLL.PLLState) == RCC_PLL_OFF) ||
 8002194:	429a      	cmp	r2, r3
 8002196:	d121      	bne.n	80021dc <HAL_RCC_OscConfig+0x4dc>
            (READ_BIT(pll_config, RCC_PLLCFGR_PLLM) != (RCC_OscInitStruct->PLL.PLLM) << RCC_PLLCFGR_PLLM_Pos) ||
 8002198:	68fb      	ldr	r3, [r7, #12]
 800219a:	f003 023f 	and.w	r2, r3, #63	@ 0x3f
 800219e:	687b      	ldr	r3, [r7, #4]
 80021a0:	6a1b      	ldr	r3, [r3, #32]
            (READ_BIT(pll_config, RCC_PLLCFGR_PLLSRC) != RCC_OscInitStruct->PLL.PLLSource) ||
 80021a2:	429a      	cmp	r2, r3
 80021a4:	d11a      	bne.n	80021dc <HAL_RCC_OscConfig+0x4dc>
            (READ_BIT(pll_config, RCC_PLLCFGR_PLLN) != (RCC_OscInitStruct->PLL.PLLN) << RCC_PLLCFGR_PLLN_Pos) ||
 80021a6:	68fa      	ldr	r2, [r7, #12]
 80021a8:	f647 73c0 	movw	r3, #32704	@ 0x7fc0
 80021ac:	4013      	ands	r3, r2
 80021ae:	687a      	ldr	r2, [r7, #4]
 80021b0:	6a52      	ldr	r2, [r2, #36]	@ 0x24
 80021b2:	0192      	lsls	r2, r2, #6
            (READ_BIT(pll_config, RCC_PLLCFGR_PLLM) != (RCC_OscInitStruct->PLL.PLLM) << RCC_PLLCFGR_PLLM_Pos) ||
 80021b4:	4293      	cmp	r3, r2
 80021b6:	d111      	bne.n	80021dc <HAL_RCC_OscConfig+0x4dc>
            (READ_BIT(pll_config, RCC_PLLCFGR_PLLP) != (((RCC_OscInitStruct->PLL.PLLP >> 1U) - 1U)) << RCC_PLLCFGR_PLLP_Pos) ||
 80021b8:	68fb      	ldr	r3, [r7, #12]
 80021ba:	f403 3240 	and.w	r2, r3, #196608	@ 0x30000
 80021be:	687b      	ldr	r3, [r7, #4]
 80021c0:	6a9b      	ldr	r3, [r3, #40]	@ 0x28
 80021c2:	085b      	lsrs	r3, r3, #1
 80021c4:	3b01      	subs	r3, #1
 80021c6:	041b      	lsls	r3, r3, #16
            (READ_BIT(pll_config, RCC_PLLCFGR_PLLN) != (RCC_OscInitStruct->PLL.PLLN) << RCC_PLLCFGR_PLLN_Pos) ||
 80021c8:	429a      	cmp	r2, r3
 80021ca:	d107      	bne.n	80021dc <HAL_RCC_OscConfig+0x4dc>
            (READ_BIT(pll_config, RCC_PLLCFGR_PLLQ) != (RCC_OscInitStruct->PLL.PLLQ << RCC_PLLCFGR_PLLQ_Pos)))
 80021cc:	68fb      	ldr	r3, [r7, #12]
 80021ce:	f003 6270 	and.w	r2, r3, #251658240	@ 0xf000000
 80021d2:	687b      	ldr	r3, [r7, #4]
 80021d4:	6adb      	ldr	r3, [r3, #44]	@ 0x2c
 80021d6:	061b      	lsls	r3, r3, #24
            (READ_BIT(pll_config, RCC_PLLCFGR_PLLP) != (((RCC_OscInitStruct->PLL.PLLP >> 1U) - 1U)) << RCC_PLLCFGR_PLLP_Pos) ||
 80021d8:	429a      	cmp	r2, r3
 80021da:	d001      	beq.n	80021e0 <HAL_RCC_OscConfig+0x4e0>
#endif /* RCC_PLLCFGR_PLLR */
        {
          return HAL_ERROR;
 80021dc:	2301      	movs	r3, #1
 80021de:	e000      	b.n	80021e2 <HAL_RCC_OscConfig+0x4e2>
        }
      }
    }
  }
  return HAL_OK;
 80021e0:	2300      	movs	r3, #0
}
 80021e2:	4618      	mov	r0, r3
 80021e4:	3718      	adds	r7, #24
 80021e6:	46bd      	mov	sp, r7
 80021e8:	bd80      	pop	{r7, pc}
 80021ea:	bf00      	nop
 80021ec:	40023800 	.word	0x40023800

080021f0 <HAL_RCC_ClockConfig>:
  *         HPRE[3:0] bits to ensure that HCLK not exceed the maximum allowed frequency
  *         (for more details refer to section above "Initialization/de-initialization functions")
  * @retval None
  */
HAL_StatusTypeDef HAL_RCC_ClockConfig(RCC_ClkInitTypeDef  *RCC_ClkInitStruct, uint32_t FLatency)
{
 80021f0:	b580      	push	{r7, lr}
 80021f2:	b084      	sub	sp, #16
 80021f4:	af00      	add	r7, sp, #0
 80021f6:	6078      	str	r0, [r7, #4]
 80021f8:	6039      	str	r1, [r7, #0]
  uint32_t tickstart;

  /* Check Null pointer */
  if (RCC_ClkInitStruct == NULL)
 80021fa:	687b      	ldr	r3, [r7, #4]
 80021fc:	2b00      	cmp	r3, #0
 80021fe:	d101      	bne.n	8002204 <HAL_RCC_ClockConfig+0x14>
  {
    return HAL_ERROR;
 8002200:	2301      	movs	r3, #1
 8002202:	e0cc      	b.n	800239e <HAL_RCC_ClockConfig+0x1ae>
  /* To correctly read data from FLASH memory, the number of wait states (LATENCY)
    must be correctly programmed according to the frequency of the CPU clock
    (HCLK) and the supply voltage of the device. */

  /* Increasing the number of wait states because of higher CPU frequency */
  if (FLatency > __HAL_FLASH_GET_LATENCY())
 8002204:	4b68      	ldr	r3, [pc, #416]	@ (80023a8 <HAL_RCC_ClockConfig+0x1b8>)
 8002206:	681b      	ldr	r3, [r3, #0]
 8002208:	f003 030f 	and.w	r3, r3, #15
 800220c:	683a      	ldr	r2, [r7, #0]
 800220e:	429a      	cmp	r2, r3
 8002210:	d90c      	bls.n	800222c <HAL_RCC_ClockConfig+0x3c>
  {
    /* Program the new number of wait states to the LATENCY bits in the FLASH_ACR register */
    __HAL_FLASH_SET_LATENCY(FLatency);
 8002212:	4b65      	ldr	r3, [pc, #404]	@ (80023a8 <HAL_RCC_ClockConfig+0x1b8>)
 8002214:	683a      	ldr	r2, [r7, #0]
 8002216:	b2d2      	uxtb	r2, r2
 8002218:	701a      	strb	r2, [r3, #0]

    /* Check that the new number of wait states is taken into account to access the Flash
    memory by reading the FLASH_ACR register */
    if (__HAL_FLASH_GET_LATENCY() != FLatency)
 800221a:	4b63      	ldr	r3, [pc, #396]	@ (80023a8 <HAL_RCC_ClockConfig+0x1b8>)
 800221c:	681b      	ldr	r3, [r3, #0]
 800221e:	f003 030f 	and.w	r3, r3, #15
 8002222:	683a      	ldr	r2, [r7, #0]
 8002224:	429a      	cmp	r2, r3
 8002226:	d001      	beq.n	800222c <HAL_RCC_ClockConfig+0x3c>
    {
      return HAL_ERROR;
 8002228:	2301      	movs	r3, #1
 800222a:	e0b8      	b.n	800239e <HAL_RCC_ClockConfig+0x1ae>
    }
  }

  /*-------------------------- HCLK Configuration --------------------------*/
  if (((RCC_ClkInitStruct->ClockType) & RCC_CLOCKTYPE_HCLK) == RCC_CLOCKTYPE_HCLK)
 800222c:	687b      	ldr	r3, [r7, #4]
 800222e:	681b      	ldr	r3, [r3, #0]
 8002230:	f003 0302 	and.w	r3, r3, #2
 8002234:	2b00      	cmp	r3, #0
 8002236:	d020      	beq.n	800227a <HAL_RCC_ClockConfig+0x8a>
  {
    /* Set the highest APBx dividers in order to ensure that we do not go through
       a non-spec phase whatever we decrease or increase HCLK. */
    if (((RCC_ClkInitStruct->ClockType) & RCC_CLOCKTYPE_PCLK1) == RCC_CLOCKTYPE_PCLK1)
 8002238:	687b      	ldr	r3, [r7, #4]
 800223a:	681b      	ldr	r3, [r3, #0]
 800223c:	f003 0304 	and.w	r3, r3, #4
 8002240:	2b00      	cmp	r3, #0
 8002242:	d005      	beq.n	8002250 <HAL_RCC_ClockConfig+0x60>
    {
      MODIFY_REG(RCC->CFGR, RCC_CFGR_PPRE1, RCC_HCLK_DIV16);
 8002244:	4b59      	ldr	r3, [pc, #356]	@ (80023ac <HAL_RCC_ClockConfig+0x1bc>)
 8002246:	689b      	ldr	r3, [r3, #8]
 8002248:	4a58      	ldr	r2, [pc, #352]	@ (80023ac <HAL_RCC_ClockConfig+0x1bc>)
 800224a:	f443 53e0 	orr.w	r3, r3, #7168	@ 0x1c00
 800224e:	6093      	str	r3, [r2, #8]
    }

    if (((RCC_ClkInitStruct->ClockType) & RCC_CLOCKTYPE_PCLK2) == RCC_CLOCKTYPE_PCLK2)
 8002250:	687b      	ldr	r3, [r7, #4]
 8002252:	681b      	ldr	r3, [r3, #0]
 8002254:	f003 0308 	and.w	r3, r3, #8
 8002258:	2b00      	cmp	r3, #0
 800225a:	d005      	beq.n	8002268 <HAL_RCC_ClockConfig+0x78>
    {
      MODIFY_REG(RCC->CFGR, RCC_CFGR_PPRE2, (RCC_HCLK_DIV16 << 3));
 800225c:	4b53      	ldr	r3, [pc, #332]	@ (80023ac <HAL_RCC_ClockConfig+0x1bc>)
 800225e:	689b      	ldr	r3, [r3, #8]
 8002260:	4a52      	ldr	r2, [pc, #328]	@ (80023ac <HAL_RCC_ClockConfig+0x1bc>)
 8002262:	f443 4360 	orr.w	r3, r3, #57344	@ 0xe000
 8002266:	6093      	str	r3, [r2, #8]
    }

    assert_param(IS_RCC_HCLK(RCC_ClkInitStruct->AHBCLKDivider));
    MODIFY_REG(RCC->CFGR, RCC_CFGR_HPRE, RCC_ClkInitStruct->AHBCLKDivider);
 8002268:	4b50      	ldr	r3, [pc, #320]	@ (80023ac <HAL_RCC_ClockConfig+0x1bc>)
 800226a:	689b      	ldr	r3, [r3, #8]
 800226c:	f023 02f0 	bic.w	r2, r3, #240	@ 0xf0
 8002270:	687b      	ldr	r3, [r7, #4]
 8002272:	689b      	ldr	r3, [r3, #8]
 8002274:	494d      	ldr	r1, [pc, #308]	@ (80023ac <HAL_RCC_ClockConfig+0x1bc>)
 8002276:	4313      	orrs	r3, r2
 8002278:	608b      	str	r3, [r1, #8]
  }

  /*------------------------- SYSCLK Configuration ---------------------------*/
  if (((RCC_ClkInitStruct->ClockType) & RCC_CLOCKTYPE_SYSCLK) == RCC_CLOCKTYPE_SYSCLK)
 800227a:	687b      	ldr	r3, [r7, #4]
 800227c:	681b      	ldr	r3, [r3, #0]
 800227e:	f003 0301 	and.w	r3, r3, #1
 8002282:	2b00      	cmp	r3, #0
 8002284:	d044      	beq.n	8002310 <HAL_RCC_ClockConfig+0x120>
  {
    assert_param(IS_RCC_SYSCLKSOURCE(RCC_ClkInitStruct->SYSCLKSource));

    /* HSE is selected as System Clock Source */
    if (RCC_ClkInitStruct->SYSCLKSource == RCC_SYSCLKSOURCE_HSE)
 8002286:	687b      	ldr	r3, [r7, #4]
 8002288:	685b      	ldr	r3, [r3, #4]
 800228a:	2b01      	cmp	r3, #1
 800228c:	d107      	bne.n	800229e <HAL_RCC_ClockConfig+0xae>
    {
      /* Check the HSE ready flag */
      if (__HAL_RCC_GET_FLAG(RCC_FLAG_HSERDY) == RESET)
 800228e:	4b47      	ldr	r3, [pc, #284]	@ (80023ac <HAL_RCC_ClockConfig+0x1bc>)
 8002290:	681b      	ldr	r3, [r3, #0]
 8002292:	f403 3300 	and.w	r3, r3, #131072	@ 0x20000
 8002296:	2b00      	cmp	r3, #0
 8002298:	d119      	bne.n	80022ce <HAL_RCC_ClockConfig+0xde>
      {
        return HAL_ERROR;
 800229a:	2301      	movs	r3, #1
 800229c:	e07f      	b.n	800239e <HAL_RCC_ClockConfig+0x1ae>
      }
    }
    /* PLL is selected as System Clock Source */
    else if ((RCC_ClkInitStruct->SYSCLKSource == RCC_SYSCLKSOURCE_PLLCLK)   ||
 800229e:	687b      	ldr	r3, [r7, #4]
 80022a0:	685b      	ldr	r3, [r3, #4]
 80022a2:	2b02      	cmp	r3, #2
 80022a4:	d003      	beq.n	80022ae <HAL_RCC_ClockConfig+0xbe>
             (RCC_ClkInitStruct->SYSCLKSource == RCC_SYSCLKSOURCE_PLLRCLK))
 80022a6:	687b      	ldr	r3, [r7, #4]
 80022a8:	685b      	ldr	r3, [r3, #4]
    else if ((RCC_ClkInitStruct->SYSCLKSource == RCC_SYSCLKSOURCE_PLLCLK)   ||
 80022aa:	2b03      	cmp	r3, #3
 80022ac:	d107      	bne.n	80022be <HAL_RCC_ClockConfig+0xce>
    {
      /* Check the PLL ready flag */
      if (__HAL_RCC_GET_FLAG(RCC_FLAG_PLLRDY) == RESET)
 80022ae:	4b3f      	ldr	r3, [pc, #252]	@ (80023ac <HAL_RCC_ClockConfig+0x1bc>)
 80022b0:	681b      	ldr	r3, [r3, #0]
 80022b2:	f003 7300 	and.w	r3, r3, #33554432	@ 0x2000000
 80022b6:	2b00      	cmp	r3, #0
 80022b8:	d109      	bne.n	80022ce <HAL_RCC_ClockConfig+0xde>
      {
        return HAL_ERROR;
 80022ba:	2301      	movs	r3, #1
 80022bc:	e06f      	b.n	800239e <HAL_RCC_ClockConfig+0x1ae>
    }
    /* HSI is selected as System Clock Source */
    else
    {
      /* Check the HSI ready flag */
      if (__HAL_RCC_GET_FLAG(RCC_FLAG_HSIRDY) == RESET)
 80022be:	4b3b      	ldr	r3, [pc, #236]	@ (80023ac <HAL_RCC_ClockConfig+0x1bc>)
 80022c0:	681b      	ldr	r3, [r3, #0]
 80022c2:	f003 0302 	and.w	r3, r3, #2
 80022c6:	2b00      	cmp	r3, #0
 80022c8:	d101      	bne.n	80022ce <HAL_RCC_ClockConfig+0xde>
      {
        return HAL_ERROR;
 80022ca:	2301      	movs	r3, #1
 80022cc:	e067      	b.n	800239e <HAL_RCC_ClockConfig+0x1ae>
      }
    }

    __HAL_RCC_SYSCLK_CONFIG(RCC_ClkInitStruct->SYSCLKSource);
 80022ce:	4b37      	ldr	r3, [pc, #220]	@ (80023ac <HAL_RCC_ClockConfig+0x1bc>)
 80022d0:	689b      	ldr	r3, [r3, #8]
 80022d2:	f023 0203 	bic.w	r2, r3, #3
 80022d6:	687b      	ldr	r3, [r7, #4]
 80022d8:	685b      	ldr	r3, [r3, #4]
 80022da:	4934      	ldr	r1, [pc, #208]	@ (80023ac <HAL_RCC_ClockConfig+0x1bc>)
 80022dc:	4313      	orrs	r3, r2
 80022de:	608b      	str	r3, [r1, #8]

    /* Get Start Tick */
    tickstart = HAL_GetTick();
 80022e0:	f7fe fdd4 	bl	8000e8c <HAL_GetTick>
 80022e4:	60f8      	str	r0, [r7, #12]

    while (__HAL_RCC_GET_SYSCLK_SOURCE() != (RCC_ClkInitStruct->SYSCLKSource << RCC_CFGR_SWS_Pos))
 80022e6:	e00a      	b.n	80022fe <HAL_RCC_ClockConfig+0x10e>
    {
      if ((HAL_GetTick() - tickstart) > CLOCKSWITCH_TIMEOUT_VALUE)
 80022e8:	f7fe fdd0 	bl	8000e8c <HAL_GetTick>
 80022ec:	4602      	mov	r2, r0
 80022ee:	68fb      	ldr	r3, [r7, #12]
 80022f0:	1ad3      	subs	r3, r2, r3
 80022f2:	f241 3288 	movw	r2, #5000	@ 0x1388
 80022f6:	4293      	cmp	r3, r2
 80022f8:	d901      	bls.n	80022fe <HAL_RCC_ClockConfig+0x10e>
      {
        return HAL_TIMEOUT;
 80022fa:	2303      	movs	r3, #3
 80022fc:	e04f      	b.n	800239e <HAL_RCC_ClockConfig+0x1ae>
    while (__HAL_RCC_GET_SYSCLK_SOURCE() != (RCC_ClkInitStruct->SYSCLKSource << RCC_CFGR_SWS_Pos))
 80022fe:	4b2b      	ldr	r3, [pc, #172]	@ (80023ac <HAL_RCC_ClockConfig+0x1bc>)
 8002300:	689b      	ldr	r3, [r3, #8]
 8002302:	f003 020c 	and.w	r2, r3, #12
 8002306:	687b      	ldr	r3, [r7, #4]
 8002308:	685b      	ldr	r3, [r3, #4]
 800230a:	009b      	lsls	r3, r3, #2
 800230c:	429a      	cmp	r2, r3
 800230e:	d1eb      	bne.n	80022e8 <HAL_RCC_ClockConfig+0xf8>
      }
    }
  }

  /* Decreasing the number of wait states because of lower CPU frequency */
  if (FLatency < __HAL_FLASH_GET_LATENCY())
 8002310:	4b25      	ldr	r3, [pc, #148]	@ (80023a8 <HAL_RCC_ClockConfig+0x1b8>)
 8002312:	681b      	ldr	r3, [r3, #0]
 8002314:	f003 030f 	and.w	r3, r3, #15
 8002318:	683a      	ldr	r2, [r7, #0]
 800231a:	429a      	cmp	r2, r3
 800231c:	d20c      	bcs.n	8002338 <HAL_RCC_ClockConfig+0x148>
  {
    /* Program the new number of wait states to the LATENCY bits in the FLASH_ACR register */
    __HAL_FLASH_SET_LATENCY(FLatency);
 800231e:	4b22      	ldr	r3, [pc, #136]	@ (80023a8 <HAL_RCC_ClockConfig+0x1b8>)
 8002320:	683a      	ldr	r2, [r7, #0]
 8002322:	b2d2      	uxtb	r2, r2
 8002324:	701a      	strb	r2, [r3, #0]

    /* Check that the new number of wait states is taken into account to access the Flash
    memory by reading the FLASH_ACR register */
    if (__HAL_FLASH_GET_LATENCY() != FLatency)
 8002326:	4b20      	ldr	r3, [pc, #128]	@ (80023a8 <HAL_RCC_ClockConfig+0x1b8>)
 8002328:	681b      	ldr	r3, [r3, #0]
 800232a:	f003 030f 	and.w	r3, r3, #15
 800232e:	683a      	ldr	r2, [r7, #0]
 8002330:	429a      	cmp	r2, r3
 8002332:	d001      	beq.n	8002338 <HAL_RCC_ClockConfig+0x148>
    {
      return HAL_ERROR;
 8002334:	2301      	movs	r3, #1
 8002336:	e032      	b.n	800239e <HAL_RCC_ClockConfig+0x1ae>
    }
  }

  /*-------------------------- PCLK1 Configuration ---------------------------*/
  if (((RCC_ClkInitStruct->ClockType) & RCC_CLOCKTYPE_PCLK1) == RCC_CLOCKTYPE_PCLK1)
 8002338:	687b      	ldr	r3, [r7, #4]
 800233a:	681b      	ldr	r3, [r3, #0]
 800233c:	f003 0304 	and.w	r3, r3, #4
 8002340:	2b00      	cmp	r3, #0
 8002342:	d008      	beq.n	8002356 <HAL_RCC_ClockConfig+0x166>
  {
    assert_param(IS_RCC_PCLK(RCC_ClkInitStruct->APB1CLKDivider));
    MODIFY_REG(RCC->CFGR, RCC_CFGR_PPRE1, RCC_ClkInitStruct->APB1CLKDivider);
 8002344:	4b19      	ldr	r3, [pc, #100]	@ (80023ac <HAL_RCC_ClockConfig+0x1bc>)
 8002346:	689b      	ldr	r3, [r3, #8]
 8002348:	f423 52e0 	bic.w	r2, r3, #7168	@ 0x1c00
 800234c:	687b      	ldr	r3, [r7, #4]
 800234e:	68db      	ldr	r3, [r3, #12]
 8002350:	4916      	ldr	r1, [pc, #88]	@ (80023ac <HAL_RCC_ClockConfig+0x1bc>)
 8002352:	4313      	orrs	r3, r2
 8002354:	608b      	str	r3, [r1, #8]
  }

  /*-------------------------- PCLK2 Configuration ---------------------------*/
  if (((RCC_ClkInitStruct->ClockType) & RCC_CLOCKTYPE_PCLK2) == RCC_CLOCKTYPE_PCLK2)
 8002356:	687b      	ldr	r3, [r7, #4]
 8002358:	681b      	ldr	r3, [r3, #0]
 800235a:	f003 0308 	and.w	r3, r3, #8
 800235e:	2b00      	cmp	r3, #0
 8002360:	d009      	beq.n	8002376 <HAL_RCC_ClockConfig+0x186>
  {
    assert_param(IS_RCC_PCLK(RCC_ClkInitStruct->APB2CLKDivider));
    MODIFY_REG(RCC->CFGR, RCC_CFGR_PPRE2, ((RCC_ClkInitStruct->APB2CLKDivider) << 3U));
 8002362:	4b12      	ldr	r3, [pc, #72]	@ (80023ac <HAL_RCC_ClockConfig+0x1bc>)
 8002364:	689b      	ldr	r3, [r3, #8]
 8002366:	f423 4260 	bic.w	r2, r3, #57344	@ 0xe000
 800236a:	687b      	ldr	r3, [r7, #4]
 800236c:	691b      	ldr	r3, [r3, #16]
 800236e:	00db      	lsls	r3, r3, #3
 8002370:	490e      	ldr	r1, [pc, #56]	@ (80023ac <HAL_RCC_ClockConfig+0x1bc>)
 8002372:	4313      	orrs	r3, r2
 8002374:	608b      	str	r3, [r1, #8]
  }

  /* Update the SystemCoreClock global variable */
  SystemCoreClock = HAL_RCC_GetSysClockFreq() >> AHBPrescTable[(RCC->CFGR & RCC_CFGR_HPRE) >> RCC_CFGR_HPRE_Pos];
 8002376:	f000 f821 	bl	80023bc <HAL_RCC_GetSysClockFreq>
 800237a:	4602      	mov	r2, r0
 800237c:	4b0b      	ldr	r3, [pc, #44]	@ (80023ac <HAL_RCC_ClockConfig+0x1bc>)
 800237e:	689b      	ldr	r3, [r3, #8]
 8002380:	091b      	lsrs	r3, r3, #4
 8002382:	f003 030f 	and.w	r3, r3, #15
 8002386:	490a      	ldr	r1, [pc, #40]	@ (80023b0 <HAL_RCC_ClockConfig+0x1c0>)
 8002388:	5ccb      	ldrb	r3, [r1, r3]
 800238a:	fa22 f303 	lsr.w	r3, r2, r3
 800238e:	4a09      	ldr	r2, [pc, #36]	@ (80023b4 <HAL_RCC_ClockConfig+0x1c4>)
 8002390:	6013      	str	r3, [r2, #0]

  /* Configure the source of time base considering new system clocks settings */
  HAL_InitTick(uwTickPrio);
 8002392:	4b09      	ldr	r3, [pc, #36]	@ (80023b8 <HAL_RCC_ClockConfig+0x1c8>)
 8002394:	681b      	ldr	r3, [r3, #0]
 8002396:	4618      	mov	r0, r3
 8002398:	f7fe fd34 	bl	8000e04 <HAL_InitTick>

  return HAL_OK;
 800239c:	2300      	movs	r3, #0
}
 800239e:	4618      	mov	r0, r3
 80023a0:	3710      	adds	r7, #16
 80023a2:	46bd      	mov	sp, r7
 80023a4:	bd80      	pop	{r7, pc}
 80023a6:	bf00      	nop
 80023a8:	40023c00 	.word	0x40023c00
 80023ac:	40023800 	.word	0x40023800
 80023b0:	08003230 	.word	0x08003230
 80023b4:	20000000 	.word	0x20000000
 80023b8:	20000004 	.word	0x20000004

080023bc <HAL_RCC_GetSysClockFreq>:
  *
  *
  * @retval SYSCLK frequency
  */
__weak uint32_t HAL_RCC_GetSysClockFreq(void)
{
 80023bc:	e92d 4fb0 	stmdb	sp!, {r4, r5, r7, r8, r9, sl, fp, lr}
 80023c0:	b094      	sub	sp, #80	@ 0x50
 80023c2:	af00      	add	r7, sp, #0
  uint32_t pllm = 0U;
 80023c4:	2300      	movs	r3, #0
 80023c6:	647b      	str	r3, [r7, #68]	@ 0x44
  uint32_t pllvco = 0U;
 80023c8:	2300      	movs	r3, #0
 80023ca:	64fb      	str	r3, [r7, #76]	@ 0x4c
  uint32_t pllp = 0U;
 80023cc:	2300      	movs	r3, #0
 80023ce:	643b      	str	r3, [r7, #64]	@ 0x40
  uint32_t sysclockfreq = 0U;
 80023d0:	2300      	movs	r3, #0
 80023d2:	64bb      	str	r3, [r7, #72]	@ 0x48

  /* Get SYSCLK source -------------------------------------------------------*/
  switch (RCC->CFGR & RCC_CFGR_SWS)
 80023d4:	4b79      	ldr	r3, [pc, #484]	@ (80025bc <HAL_RCC_GetSysClockFreq+0x200>)
 80023d6:	689b      	ldr	r3, [r3, #8]
 80023d8:	f003 030c 	and.w	r3, r3, #12
 80023dc:	2b08      	cmp	r3, #8
 80023de:	d00d      	beq.n	80023fc <HAL_RCC_GetSysClockFreq+0x40>
 80023e0:	2b08      	cmp	r3, #8
 80023e2:	f200 80e1 	bhi.w	80025a8 <HAL_RCC_GetSysClockFreq+0x1ec>
 80023e6:	2b00      	cmp	r3, #0
 80023e8:	d002      	beq.n	80023f0 <HAL_RCC_GetSysClockFreq+0x34>
 80023ea:	2b04      	cmp	r3, #4
 80023ec:	d003      	beq.n	80023f6 <HAL_RCC_GetSysClockFreq+0x3a>
 80023ee:	e0db      	b.n	80025a8 <HAL_RCC_GetSysClockFreq+0x1ec>
  {
    case RCC_CFGR_SWS_HSI:  /* HSI used as system clock source */
    {
      sysclockfreq = HSI_VALUE;
 80023f0:	4b73      	ldr	r3, [pc, #460]	@ (80025c0 <HAL_RCC_GetSysClockFreq+0x204>)
 80023f2:	64bb      	str	r3, [r7, #72]	@ 0x48
      break;
 80023f4:	e0db      	b.n	80025ae <HAL_RCC_GetSysClockFreq+0x1f2>
    }
    case RCC_CFGR_SWS_HSE:  /* HSE used as system clock  source */
    {
      sysclockfreq = HSE_VALUE;
 80023f6:	4b73      	ldr	r3, [pc, #460]	@ (80025c4 <HAL_RCC_GetSysClockFreq+0x208>)
 80023f8:	64bb      	str	r3, [r7, #72]	@ 0x48
      break;
 80023fa:	e0d8      	b.n	80025ae <HAL_RCC_GetSysClockFreq+0x1f2>
    }
    case RCC_CFGR_SWS_PLL:  /* PLL used as system clock  source */
    {
      /* PLL_VCO = (HSE_VALUE or HSI_VALUE / PLLM) * PLLN
      SYSCLK = PLL_VCO / PLLP */
      pllm = RCC->PLLCFGR & RCC_PLLCFGR_PLLM;
 80023fc:	4b6f      	ldr	r3, [pc, #444]	@ (80025bc <HAL_RCC_GetSysClockFreq+0x200>)
 80023fe:	685b      	ldr	r3, [r3, #4]
 8002400:	f003 033f 	and.w	r3, r3, #63	@ 0x3f
 8002404:	647b      	str	r3, [r7, #68]	@ 0x44
      if (__HAL_RCC_GET_PLL_OSCSOURCE() != RCC_PLLSOURCE_HSI)
 8002406:	4b6d      	ldr	r3, [pc, #436]	@ (80025bc <HAL_RCC_GetSysClockFreq+0x200>)
 8002408:	685b      	ldr	r3, [r3, #4]
 800240a:	f403 0380 	and.w	r3, r3, #4194304	@ 0x400000
 800240e:	2b00      	cmp	r3, #0
 8002410:	d063      	beq.n	80024da <HAL_RCC_GetSysClockFreq+0x11e>
      {
        /* HSE used as PLL clock source */
        pllvco = (uint32_t)((((uint64_t) HSE_VALUE * ((uint64_t)((RCC->PLLCFGR & RCC_PLLCFGR_PLLN) >> RCC_PLLCFGR_PLLN_Pos)))) / (uint64_t)pllm);
 8002412:	4b6a      	ldr	r3, [pc, #424]	@ (80025bc <HAL_RCC_GetSysClockFreq+0x200>)
 8002414:	685b      	ldr	r3, [r3, #4]
 8002416:	099b      	lsrs	r3, r3, #6
 8002418:	2200      	movs	r2, #0
 800241a:	63bb      	str	r3, [r7, #56]	@ 0x38
 800241c:	63fa      	str	r2, [r7, #60]	@ 0x3c
 800241e:	6bbb      	ldr	r3, [r7, #56]	@ 0x38
 8002420:	f3c3 0308 	ubfx	r3, r3, #0, #9
 8002424:	633b      	str	r3, [r7, #48]	@ 0x30
 8002426:	2300      	movs	r3, #0
 8002428:	637b      	str	r3, [r7, #52]	@ 0x34
 800242a:	e9d7 450c 	ldrd	r4, r5, [r7, #48]	@ 0x30
 800242e:	4622      	mov	r2, r4
 8002430:	462b      	mov	r3, r5
 8002432:	f04f 0000 	mov.w	r0, #0
 8002436:	f04f 0100 	mov.w	r1, #0
 800243a:	0159      	lsls	r1, r3, #5
 800243c:	ea41 61d2 	orr.w	r1, r1, r2, lsr #27
 8002440:	0150      	lsls	r0, r2, #5
 8002442:	4602      	mov	r2, r0
 8002444:	460b      	mov	r3, r1
 8002446:	4621      	mov	r1, r4
 8002448:	1a51      	subs	r1, r2, r1
 800244a:	6139      	str	r1, [r7, #16]
 800244c:	4629      	mov	r1, r5
 800244e:	eb63 0301 	sbc.w	r3, r3, r1
 8002452:	617b      	str	r3, [r7, #20]
 8002454:	f04f 0200 	mov.w	r2, #0
 8002458:	f04f 0300 	mov.w	r3, #0
 800245c:	e9d7 ab04 	ldrd	sl, fp, [r7, #16]
 8002460:	4659      	mov	r1, fp
 8002462:	018b      	lsls	r3, r1, #6
 8002464:	4651      	mov	r1, sl
 8002466:	ea43 6391 	orr.w	r3, r3, r1, lsr #26
 800246a:	4651      	mov	r1, sl
 800246c:	018a      	lsls	r2, r1, #6
 800246e:	4651      	mov	r1, sl
 8002470:	ebb2 0801 	subs.w	r8, r2, r1
 8002474:	4659      	mov	r1, fp
 8002476:	eb63 0901 	sbc.w	r9, r3, r1
 800247a:	f04f 0200 	mov.w	r2, #0
 800247e:	f04f 0300 	mov.w	r3, #0
 8002482:	ea4f 03c9 	mov.w	r3, r9, lsl #3
 8002486:	ea43 7358 	orr.w	r3, r3, r8, lsr #29
 800248a:	ea4f 02c8 	mov.w	r2, r8, lsl #3
 800248e:	4690      	mov	r8, r2
 8002490:	4699      	mov	r9, r3
 8002492:	4623      	mov	r3, r4
 8002494:	eb18 0303 	adds.w	r3, r8, r3
 8002498:	60bb      	str	r3, [r7, #8]
 800249a:	462b      	mov	r3, r5
 800249c:	eb49 0303 	adc.w	r3, r9, r3
 80024a0:	60fb      	str	r3, [r7, #12]
 80024a2:	f04f 0200 	mov.w	r2, #0
 80024a6:	f04f 0300 	mov.w	r3, #0
 80024aa:	e9d7 4502 	ldrd	r4, r5, [r7, #8]
 80024ae:	4629      	mov	r1, r5
 80024b0:	024b      	lsls	r3, r1, #9
 80024b2:	4621      	mov	r1, r4
 80024b4:	ea43 53d1 	orr.w	r3, r3, r1, lsr #23
 80024b8:	4621      	mov	r1, r4
 80024ba:	024a      	lsls	r2, r1, #9
 80024bc:	4610      	mov	r0, r2
 80024be:	4619      	mov	r1, r3
 80024c0:	6c7b      	ldr	r3, [r7, #68]	@ 0x44
 80024c2:	2200      	movs	r2, #0
 80024c4:	62bb      	str	r3, [r7, #40]	@ 0x28
 80024c6:	62fa      	str	r2, [r7, #44]	@ 0x2c
 80024c8:	e9d7 230a 	ldrd	r2, r3, [r7, #40]	@ 0x28
 80024cc:	f7fd fe8e 	bl	80001ec <__aeabi_uldivmod>
 80024d0:	4602      	mov	r2, r0
 80024d2:	460b      	mov	r3, r1
 80024d4:	4613      	mov	r3, r2
 80024d6:	64fb      	str	r3, [r7, #76]	@ 0x4c
 80024d8:	e058      	b.n	800258c <HAL_RCC_GetSysClockFreq+0x1d0>
      }
      else
      {
        /* HSI used as PLL clock source */
        pllvco = (uint32_t)((((uint64_t) HSI_VALUE * ((uint64_t)((RCC->PLLCFGR & RCC_PLLCFGR_PLLN) >> RCC_PLLCFGR_PLLN_Pos)))) / (uint64_t)pllm);
 80024da:	4b38      	ldr	r3, [pc, #224]	@ (80025bc <HAL_RCC_GetSysClockFreq+0x200>)
 80024dc:	685b      	ldr	r3, [r3, #4]
 80024de:	099b      	lsrs	r3, r3, #6
 80024e0:	2200      	movs	r2, #0
 80024e2:	4618      	mov	r0, r3
 80024e4:	4611      	mov	r1, r2
 80024e6:	f3c0 0308 	ubfx	r3, r0, #0, #9
 80024ea:	623b      	str	r3, [r7, #32]
 80024ec:	2300      	movs	r3, #0
 80024ee:	627b      	str	r3, [r7, #36]	@ 0x24
 80024f0:	e9d7 8908 	ldrd	r8, r9, [r7, #32]
 80024f4:	4642      	mov	r2, r8
 80024f6:	464b      	mov	r3, r9
 80024f8:	f04f 0000 	mov.w	r0, #0
 80024fc:	f04f 0100 	mov.w	r1, #0
 8002500:	0159      	lsls	r1, r3, #5
 8002502:	ea41 61d2 	orr.w	r1, r1, r2, lsr #27
 8002506:	0150      	lsls	r0, r2, #5
 8002508:	4602      	mov	r2, r0
 800250a:	460b      	mov	r3, r1
 800250c:	4641      	mov	r1, r8
 800250e:	ebb2 0a01 	subs.w	sl, r2, r1
 8002512:	4649      	mov	r1, r9
 8002514:	eb63 0b01 	sbc.w	fp, r3, r1
 8002518:	f04f 0200 	mov.w	r2, #0
 800251c:	f04f 0300 	mov.w	r3, #0
 8002520:	ea4f 138b 	mov.w	r3, fp, lsl #6
 8002524:	ea43 639a 	orr.w	r3, r3, sl, lsr #26
 8002528:	ea4f 128a 	mov.w	r2, sl, lsl #6
 800252c:	ebb2 040a 	subs.w	r4, r2, sl
 8002530:	eb63 050b 	sbc.w	r5, r3, fp
 8002534:	f04f 0200 	mov.w	r2, #0
 8002538:	f04f 0300 	mov.w	r3, #0
 800253c:	00eb      	lsls	r3, r5, #3
 800253e:	ea43 7354 	orr.w	r3, r3, r4, lsr #29
 8002542:	00e2      	lsls	r2, r4, #3
 8002544:	4614      	mov	r4, r2
 8002546:	461d      	mov	r5, r3
 8002548:	4643      	mov	r3, r8
 800254a:	18e3      	adds	r3, r4, r3
 800254c:	603b      	str	r3, [r7, #0]
 800254e:	464b      	mov	r3, r9
 8002550:	eb45 0303 	adc.w	r3, r5, r3
 8002554:	607b      	str	r3, [r7, #4]
 8002556:	f04f 0200 	mov.w	r2, #0
 800255a:	f04f 0300 	mov.w	r3, #0
 800255e:	e9d7 4500 	ldrd	r4, r5, [r7]
 8002562:	4629      	mov	r1, r5
 8002564:	028b      	lsls	r3, r1, #10
 8002566:	4621      	mov	r1, r4
 8002568:	ea43 5391 	orr.w	r3, r3, r1, lsr #22
 800256c:	4621      	mov	r1, r4
 800256e:	028a      	lsls	r2, r1, #10
 8002570:	4610      	mov	r0, r2
 8002572:	4619      	mov	r1, r3
 8002574:	6c7b      	ldr	r3, [r7, #68]	@ 0x44
 8002576:	2200      	movs	r2, #0
 8002578:	61bb      	str	r3, [r7, #24]
 800257a:	61fa      	str	r2, [r7, #28]
 800257c:	e9d7 2306 	ldrd	r2, r3, [r7, #24]
 8002580:	f7fd fe34 	bl	80001ec <__aeabi_uldivmod>
 8002584:	4602      	mov	r2, r0
 8002586:	460b      	mov	r3, r1
 8002588:	4613      	mov	r3, r2
 800258a:	64fb      	str	r3, [r7, #76]	@ 0x4c
      }
      pllp = ((((RCC->PLLCFGR & RCC_PLLCFGR_PLLP) >> RCC_PLLCFGR_PLLP_Pos) + 1U) * 2U);
 800258c:	4b0b      	ldr	r3, [pc, #44]	@ (80025bc <HAL_RCC_GetSysClockFreq+0x200>)
 800258e:	685b      	ldr	r3, [r3, #4]
 8002590:	0c1b      	lsrs	r3, r3, #16
 8002592:	f003 0303 	and.w	r3, r3, #3
 8002596:	3301      	adds	r3, #1
 8002598:	005b      	lsls	r3, r3, #1
 800259a:	643b      	str	r3, [r7, #64]	@ 0x40

      sysclockfreq = pllvco / pllp;
 800259c:	6cfa      	ldr	r2, [r7, #76]	@ 0x4c
 800259e:	6c3b      	ldr	r3, [r7, #64]	@ 0x40
 80025a0:	fbb2 f3f3 	udiv	r3, r2, r3
 80025a4:	64bb      	str	r3, [r7, #72]	@ 0x48
      break;
 80025a6:	e002      	b.n	80025ae <HAL_RCC_GetSysClockFreq+0x1f2>
    }
    default:
    {
      sysclockfreq = HSI_VALUE;
 80025a8:	4b05      	ldr	r3, [pc, #20]	@ (80025c0 <HAL_RCC_GetSysClockFreq+0x204>)
 80025aa:	64bb      	str	r3, [r7, #72]	@ 0x48
      break;
 80025ac:	bf00      	nop
    }
  }
  return sysclockfreq;
 80025ae:	6cbb      	ldr	r3, [r7, #72]	@ 0x48
}
 80025b0:	4618      	mov	r0, r3
 80025b2:	3750      	adds	r7, #80	@ 0x50
 80025b4:	46bd      	mov	sp, r7
 80025b6:	e8bd 8fb0 	ldmia.w	sp!, {r4, r5, r7, r8, r9, sl, fp, pc}
 80025ba:	bf00      	nop
 80025bc:	40023800 	.word	0x40023800
 80025c0:	00f42400 	.word	0x00f42400
 80025c4:	007a1200 	.word	0x007a1200

080025c8 <HAL_RCC_GetHCLKFreq>:
  * @note   The SystemCoreClock CMSIS variable is used to store System Clock Frequency
  *         and updated within this function
  * @retval HCLK frequency
  */
uint32_t HAL_RCC_GetHCLKFreq(void)
{
 80025c8:	b480      	push	{r7}
 80025ca:	af00      	add	r7, sp, #0
  return SystemCoreClock;
 80025cc:	4b03      	ldr	r3, [pc, #12]	@ (80025dc <HAL_RCC_GetHCLKFreq+0x14>)
 80025ce:	681b      	ldr	r3, [r3, #0]
}
 80025d0:	4618      	mov	r0, r3
 80025d2:	46bd      	mov	sp, r7
 80025d4:	f85d 7b04 	ldr.w	r7, [sp], #4
 80025d8:	4770      	bx	lr
 80025da:	bf00      	nop
 80025dc:	20000000 	.word	0x20000000

080025e0 <HAL_RCC_GetPCLK1Freq>:
  * @note   Each time PCLK1 changes, this function must be called to update the
  *         right PCLK1 value. Otherwise, any configuration based on this function will be incorrect.
  * @retval PCLK1 frequency
  */
uint32_t HAL_RCC_GetPCLK1Freq(void)
{
 80025e0:	b580      	push	{r7, lr}
 80025e2:	af00      	add	r7, sp, #0
  /* Get HCLK source and Compute PCLK1 frequency ---------------------------*/
  return (HAL_RCC_GetHCLKFreq() >> APBPrescTable[(RCC->CFGR & RCC_CFGR_PPRE1) >> RCC_CFGR_PPRE1_Pos]);
 80025e4:	f7ff fff0 	bl	80025c8 <HAL_RCC_GetHCLKFreq>
 80025e8:	4602      	mov	r2, r0
 80025ea:	4b05      	ldr	r3, [pc, #20]	@ (8002600 <HAL_RCC_GetPCLK1Freq+0x20>)
 80025ec:	689b      	ldr	r3, [r3, #8]
 80025ee:	0a9b      	lsrs	r3, r3, #10
 80025f0:	f003 0307 	and.w	r3, r3, #7
 80025f4:	4903      	ldr	r1, [pc, #12]	@ (8002604 <HAL_RCC_GetPCLK1Freq+0x24>)
 80025f6:	5ccb      	ldrb	r3, [r1, r3]
 80025f8:	fa22 f303 	lsr.w	r3, r2, r3
}
 80025fc:	4618      	mov	r0, r3
 80025fe:	bd80      	pop	{r7, pc}
 8002600:	40023800 	.word	0x40023800
 8002604:	08003240 	.word	0x08003240

08002608 <HAL_RCC_GetPCLK2Freq>:
  * @note   Each time PCLK2 changes, this function must be called to update the
  *         right PCLK2 value. Otherwise, any configuration based on this function will be incorrect.
  * @retval PCLK2 frequency
  */
uint32_t HAL_RCC_GetPCLK2Freq(void)
{
 8002608:	b580      	push	{r7, lr}
 800260a:	af00      	add	r7, sp, #0
  /* Get HCLK source and Compute PCLK2 frequency ---------------------------*/
  return (HAL_RCC_GetHCLKFreq() >> APBPrescTable[(RCC->CFGR & RCC_CFGR_PPRE2) >> RCC_CFGR_PPRE2_Pos]);
 800260c:	f7ff ffdc 	bl	80025c8 <HAL_RCC_GetHCLKFreq>
 8002610:	4602      	mov	r2, r0
 8002612:	4b05      	ldr	r3, [pc, #20]	@ (8002628 <HAL_RCC_GetPCLK2Freq+0x20>)
 8002614:	689b      	ldr	r3, [r3, #8]
 8002616:	0b5b      	lsrs	r3, r3, #13
 8002618:	f003 0307 	and.w	r3, r3, #7
 800261c:	4903      	ldr	r1, [pc, #12]	@ (800262c <HAL_RCC_GetPCLK2Freq+0x24>)
 800261e:	5ccb      	ldrb	r3, [r1, r3]
 8002620:	fa22 f303 	lsr.w	r3, r2, r3
}
 8002624:	4618      	mov	r0, r3
 8002626:	bd80      	pop	{r7, pc}
 8002628:	40023800 	.word	0x40023800
 800262c:	08003240 	.word	0x08003240

08002630 <HAL_UART_Init>:
  * @param  huart  Pointer to a UART_HandleTypeDef structure that contains
  *                the configuration information for the specified UART module.
  * @retval HAL status
  */
HAL_StatusTypeDef HAL_UART_Init(UART_HandleTypeDef *huart)
{
 8002630:	b580      	push	{r7, lr}
 8002632:	b082      	sub	sp, #8
 8002634:	af00      	add	r7, sp, #0
 8002636:	6078      	str	r0, [r7, #4]
  /* Check the UART handle allocation */
  if (huart == NULL)
 8002638:	687b      	ldr	r3, [r7, #4]
 800263a:	2b00      	cmp	r3, #0
 800263c:	d101      	bne.n	8002642 <HAL_UART_Init+0x12>
  {
    return HAL_ERROR;
 800263e:	2301      	movs	r3, #1
 8002640:	e042      	b.n	80026c8 <HAL_UART_Init+0x98>
    assert_param(IS_UART_INSTANCE(huart->Instance));
  }
  assert_param(IS_UART_WORD_LENGTH(huart->Init.WordLength));
  assert_param(IS_UART_OVERSAMPLING(huart->Init.OverSampling));

  if (huart->gState == HAL_UART_STATE_RESET)
 8002642:	687b      	ldr	r3, [r7, #4]
 8002644:	f893 3041 	ldrb.w	r3, [r3, #65]	@ 0x41
 8002648:	b2db      	uxtb	r3, r3
 800264a:	2b00      	cmp	r3, #0
 800264c:	d106      	bne.n	800265c <HAL_UART_Init+0x2c>
  {
    /* Allocate lock resource and initialize it */
    huart->Lock = HAL_UNLOCKED;
 800264e:	687b      	ldr	r3, [r7, #4]
 8002650:	2200      	movs	r2, #0
 8002652:	f883 2040 	strb.w	r2, [r3, #64]	@ 0x40

    /* Init the low level hardware */
    huart->MspInitCallback(huart);
#else
    /* Init the low level hardware : GPIO, CLOCK */
    HAL_UART_MspInit(huart);
 8002656:	6878      	ldr	r0, [r7, #4]
 8002658:	f7fe f994 	bl	8000984 <HAL_UART_MspInit>
#endif /* (USE_HAL_UART_REGISTER_CALLBACKS) */
  }

  huart->gState = HAL_UART_STATE_BUSY;
 800265c:	687b      	ldr	r3, [r7, #4]
 800265e:	2224      	movs	r2, #36	@ 0x24
 8002660:	f883 2041 	strb.w	r2, [r3, #65]	@ 0x41

  /* Disable the peripheral */
  __HAL_UART_DISABLE(huart);
 8002664:	687b      	ldr	r3, [r7, #4]
 8002666:	681b      	ldr	r3, [r3, #0]
 8002668:	68da      	ldr	r2, [r3, #12]
 800266a:	687b      	ldr	r3, [r7, #4]
 800266c:	681b      	ldr	r3, [r3, #0]
 800266e:	f422 5200 	bic.w	r2, r2, #8192	@ 0x2000
 8002672:	60da      	str	r2, [r3, #12]

  /* Set the UART Communication parameters */
  UART_SetConfig(huart);
 8002674:	6878      	ldr	r0, [r7, #4]
 8002676:	f000 f82b 	bl	80026d0 <UART_SetConfig>

  /* In asynchronous mode, the following bits must be kept cleared:
     - LINEN and CLKEN bits in the USART_CR2 register,
     - SCEN, HDSEL and IREN  bits in the USART_CR3 register.*/
  CLEAR_BIT(huart->Instance->CR2, (USART_CR2_LINEN | USART_CR2_CLKEN));
 800267a:	687b      	ldr	r3, [r7, #4]
 800267c:	681b      	ldr	r3, [r3, #0]
 800267e:	691a      	ldr	r2, [r3, #16]
 8002680:	687b      	ldr	r3, [r7, #4]
 8002682:	681b      	ldr	r3, [r3, #0]
 8002684:	f422 4290 	bic.w	r2, r2, #18432	@ 0x4800
 8002688:	611a      	str	r2, [r3, #16]
  CLEAR_BIT(huart->Instance->CR3, (USART_CR3_SCEN | USART_CR3_HDSEL | USART_CR3_IREN));
 800268a:	687b      	ldr	r3, [r7, #4]
 800268c:	681b      	ldr	r3, [r3, #0]
 800268e:	695a      	ldr	r2, [r3, #20]
 8002690:	687b      	ldr	r3, [r7, #4]
 8002692:	681b      	ldr	r3, [r3, #0]
 8002694:	f022 022a 	bic.w	r2, r2, #42	@ 0x2a
 8002698:	615a      	str	r2, [r3, #20]

  /* Enable the peripheral */
  __HAL_UART_ENABLE(huart);
 800269a:	687b      	ldr	r3, [r7, #4]
 800269c:	681b      	ldr	r3, [r3, #0]
 800269e:	68da      	ldr	r2, [r3, #12]
 80026a0:	687b      	ldr	r3, [r7, #4]
 80026a2:	681b      	ldr	r3, [r3, #0]
 80026a4:	f442 5200 	orr.w	r2, r2, #8192	@ 0x2000
 80026a8:	60da      	str	r2, [r3, #12]

  /* Initialize the UART state */
  huart->ErrorCode = HAL_UART_ERROR_NONE;
 80026aa:	687b      	ldr	r3, [r7, #4]
 80026ac:	2200      	movs	r2, #0
 80026ae:	645a      	str	r2, [r3, #68]	@ 0x44
  huart->gState = HAL_UART_STATE_READY;
 80026b0:	687b      	ldr	r3, [r7, #4]
 80026b2:	2220      	movs	r2, #32
 80026b4:	f883 2041 	strb.w	r2, [r3, #65]	@ 0x41
  huart->RxState = HAL_UART_STATE_READY;
 80026b8:	687b      	ldr	r3, [r7, #4]
 80026ba:	2220      	movs	r2, #32
 80026bc:	f883 2042 	strb.w	r2, [r3, #66]	@ 0x42
  huart->RxEventType = HAL_UART_RXEVENT_TC;
 80026c0:	687b      	ldr	r3, [r7, #4]
 80026c2:	2200      	movs	r2, #0
 80026c4:	635a      	str	r2, [r3, #52]	@ 0x34

  return HAL_OK;
 80026c6:	2300      	movs	r3, #0
}
 80026c8:	4618      	mov	r0, r3
 80026ca:	3708      	adds	r7, #8
 80026cc:	46bd      	mov	sp, r7
 80026ce:	bd80      	pop	{r7, pc}

080026d0 <UART_SetConfig>:
  * @param  huart  Pointer to a UART_HandleTypeDef structure that contains
  *                the configuration information for the specified UART module.
  * @retval None
  */
static void UART_SetConfig(UART_HandleTypeDef *huart)
{
 80026d0:	e92d 4fb0 	stmdb	sp!, {r4, r5, r7, r8, r9, sl, fp, lr}
 80026d4:	b0c0      	sub	sp, #256	@ 0x100
 80026d6:	af00      	add	r7, sp, #0
 80026d8:	f8c7 00f4 	str.w	r0, [r7, #244]	@ 0xf4
  assert_param(IS_UART_MODE(huart->Init.Mode));

  /*-------------------------- USART CR2 Configuration -----------------------*/
  /* Configure the UART Stop Bits: Set STOP[13:12] bits
     according to huart->Init.StopBits value */
  MODIFY_REG(huart->Instance->CR2, USART_CR2_STOP, huart->Init.StopBits);
 80026dc:	f8d7 30f4 	ldr.w	r3, [r7, #244]	@ 0xf4
 80026e0:	681b      	ldr	r3, [r3, #0]
 80026e2:	691b      	ldr	r3, [r3, #16]
 80026e4:	f423 5040 	bic.w	r0, r3, #12288	@ 0x3000
 80026e8:	f8d7 30f4 	ldr.w	r3, [r7, #244]	@ 0xf4
 80026ec:	68d9      	ldr	r1, [r3, #12]
 80026ee:	f8d7 30f4 	ldr.w	r3, [r7, #244]	@ 0xf4
 80026f2:	681a      	ldr	r2, [r3, #0]
 80026f4:	ea40 0301 	orr.w	r3, r0, r1
 80026f8:	6113      	str	r3, [r2, #16]
     Set the M bits according to huart->Init.WordLength value
     Set PCE and PS bits according to huart->Init.Parity value
     Set TE and RE bits according to huart->Init.Mode value
     Set OVER8 bit according to huart->Init.OverSampling value */

  tmpreg = (uint32_t)huart->Init.WordLength | huart->Init.Parity | huart->Init.Mode | huart->Init.OverSampling;
 80026fa:	f8d7 30f4 	ldr.w	r3, [r7, #244]	@ 0xf4
 80026fe:	689a      	ldr	r2, [r3, #8]
 8002700:	f8d7 30f4 	ldr.w	r3, [r7, #244]	@ 0xf4
 8002704:	691b      	ldr	r3, [r3, #16]
 8002706:	431a      	orrs	r2, r3
 8002708:	f8d7 30f4 	ldr.w	r3, [r7, #244]	@ 0xf4
 800270c:	695b      	ldr	r3, [r3, #20]
 800270e:	431a      	orrs	r2, r3
 8002710:	f8d7 30f4 	ldr.w	r3, [r7, #244]	@ 0xf4
 8002714:	69db      	ldr	r3, [r3, #28]
 8002716:	4313      	orrs	r3, r2
 8002718:	f8c7 30f8 	str.w	r3, [r7, #248]	@ 0xf8
  MODIFY_REG(huart->Instance->CR1,
 800271c:	f8d7 30f4 	ldr.w	r3, [r7, #244]	@ 0xf4
 8002720:	681b      	ldr	r3, [r3, #0]
 8002722:	68db      	ldr	r3, [r3, #12]
 8002724:	f423 4116 	bic.w	r1, r3, #38400	@ 0x9600
 8002728:	f021 010c 	bic.w	r1, r1, #12
 800272c:	f8d7 30f4 	ldr.w	r3, [r7, #244]	@ 0xf4
 8002730:	681a      	ldr	r2, [r3, #0]
 8002732:	f8d7 30f8 	ldr.w	r3, [r7, #248]	@ 0xf8
 8002736:	430b      	orrs	r3, r1
 8002738:	60d3      	str	r3, [r2, #12]
             (uint32_t)(USART_CR1_M | USART_CR1_PCE | USART_CR1_PS | USART_CR1_TE | USART_CR1_RE | USART_CR1_OVER8),
             tmpreg);

  /*-------------------------- USART CR3 Configuration -----------------------*/
  /* Configure the UART HFC: Set CTSE and RTSE bits according to huart->Init.HwFlowCtl value */
  MODIFY_REG(huart->Instance->CR3, (USART_CR3_RTSE | USART_CR3_CTSE), huart->Init.HwFlowCtl);
 800273a:	f8d7 30f4 	ldr.w	r3, [r7, #244]	@ 0xf4
 800273e:	681b      	ldr	r3, [r3, #0]
 8002740:	695b      	ldr	r3, [r3, #20]
 8002742:	f423 7040 	bic.w	r0, r3, #768	@ 0x300
 8002746:	f8d7 30f4 	ldr.w	r3, [r7, #244]	@ 0xf4
 800274a:	6999      	ldr	r1, [r3, #24]
 800274c:	f8d7 30f4 	ldr.w	r3, [r7, #244]	@ 0xf4
 8002750:	681a      	ldr	r2, [r3, #0]
 8002752:	ea40 0301 	orr.w	r3, r0, r1
 8002756:	6153      	str	r3, [r2, #20]
    if ((huart->Instance == USART1) || (huart->Instance == USART6) || (huart->Instance == UART9) || (huart->Instance == UART10))
    {
      pclk = HAL_RCC_GetPCLK2Freq();
    }
#elif defined(USART6)
    if ((huart->Instance == USART1) || (huart->Instance == USART6))
 8002758:	f8d7 30f4 	ldr.w	r3, [r7, #244]	@ 0xf4
 800275c:	681a      	ldr	r2, [r3, #0]
 800275e:	4b8f      	ldr	r3, [pc, #572]	@ (800299c <UART_SetConfig+0x2cc>)
 8002760:	429a      	cmp	r2, r3
 8002762:	d005      	beq.n	8002770 <UART_SetConfig+0xa0>
 8002764:	f8d7 30f4 	ldr.w	r3, [r7, #244]	@ 0xf4
 8002768:	681a      	ldr	r2, [r3, #0]
 800276a:	4b8d      	ldr	r3, [pc, #564]	@ (80029a0 <UART_SetConfig+0x2d0>)
 800276c:	429a      	cmp	r2, r3
 800276e:	d104      	bne.n	800277a <UART_SetConfig+0xaa>
    {
      pclk = HAL_RCC_GetPCLK2Freq();
 8002770:	f7ff ff4a 	bl	8002608 <HAL_RCC_GetPCLK2Freq>
 8002774:	f8c7 00fc 	str.w	r0, [r7, #252]	@ 0xfc
 8002778:	e003      	b.n	8002782 <UART_SetConfig+0xb2>
      pclk = HAL_RCC_GetPCLK2Freq();
    }
#endif /* USART6 */
    else
    {
      pclk = HAL_RCC_GetPCLK1Freq();
 800277a:	f7ff ff31 	bl	80025e0 <HAL_RCC_GetPCLK1Freq>
 800277e:	f8c7 00fc 	str.w	r0, [r7, #252]	@ 0xfc
    }
  /*-------------------------- USART BRR Configuration ---------------------*/
  if (huart->Init.OverSampling == UART_OVERSAMPLING_8)
 8002782:	f8d7 30f4 	ldr.w	r3, [r7, #244]	@ 0xf4
 8002786:	69db      	ldr	r3, [r3, #28]
 8002788:	f5b3 4f00 	cmp.w	r3, #32768	@ 0x8000
 800278c:	f040 810c 	bne.w	80029a8 <UART_SetConfig+0x2d8>
  {
    huart->Instance->BRR = UART_BRR_SAMPLING8(pclk, huart->Init.BaudRate);
 8002790:	f8d7 30fc 	ldr.w	r3, [r7, #252]	@ 0xfc
 8002794:	2200      	movs	r2, #0
 8002796:	f8c7 30e8 	str.w	r3, [r7, #232]	@ 0xe8
 800279a:	f8c7 20ec 	str.w	r2, [r7, #236]	@ 0xec
 800279e:	e9d7 453a 	ldrd	r4, r5, [r7, #232]	@ 0xe8
 80027a2:	4622      	mov	r2, r4
 80027a4:	462b      	mov	r3, r5
 80027a6:	1891      	adds	r1, r2, r2
 80027a8:	65b9      	str	r1, [r7, #88]	@ 0x58
 80027aa:	415b      	adcs	r3, r3
 80027ac:	65fb      	str	r3, [r7, #92]	@ 0x5c
 80027ae:	e9d7 2316 	ldrd	r2, r3, [r7, #88]	@ 0x58
 80027b2:	4621      	mov	r1, r4
 80027b4:	eb12 0801 	adds.w	r8, r2, r1
 80027b8:	4629      	mov	r1, r5
 80027ba:	eb43 0901 	adc.w	r9, r3, r1
 80027be:	f04f 0200 	mov.w	r2, #0
 80027c2:	f04f 0300 	mov.w	r3, #0
 80027c6:	ea4f 03c9 	mov.w	r3, r9, lsl #3
 80027ca:	ea43 7358 	orr.w	r3, r3, r8, lsr #29
 80027ce:	ea4f 02c8 	mov.w	r2, r8, lsl #3
 80027d2:	4690      	mov	r8, r2
 80027d4:	4699      	mov	r9, r3
 80027d6:	4623      	mov	r3, r4
 80027d8:	eb18 0303 	adds.w	r3, r8, r3
 80027dc:	f8c7 30e0 	str.w	r3, [r7, #224]	@ 0xe0
 80027e0:	462b      	mov	r3, r5
 80027e2:	eb49 0303 	adc.w	r3, r9, r3
 80027e6:	f8c7 30e4 	str.w	r3, [r7, #228]	@ 0xe4
 80027ea:	f8d7 30f4 	ldr.w	r3, [r7, #244]	@ 0xf4
 80027ee:	685b      	ldr	r3, [r3, #4]
 80027f0:	2200      	movs	r2, #0
 80027f2:	f8c7 30d8 	str.w	r3, [r7, #216]	@ 0xd8
 80027f6:	f8c7 20dc 	str.w	r2, [r7, #220]	@ 0xdc
 80027fa:	e9d7 1236 	ldrd	r1, r2, [r7, #216]	@ 0xd8
 80027fe:	460b      	mov	r3, r1
 8002800:	18db      	adds	r3, r3, r3
 8002802:	653b      	str	r3, [r7, #80]	@ 0x50
 8002804:	4613      	mov	r3, r2
 8002806:	eb42 0303 	adc.w	r3, r2, r3
 800280a:	657b      	str	r3, [r7, #84]	@ 0x54
 800280c:	e9d7 2314 	ldrd	r2, r3, [r7, #80]	@ 0x50
 8002810:	e9d7 0138 	ldrd	r0, r1, [r7, #224]	@ 0xe0
 8002814:	f7fd fcea 	bl	80001ec <__aeabi_uldivmod>
 8002818:	4602      	mov	r2, r0
 800281a:	460b      	mov	r3, r1
 800281c:	4b61      	ldr	r3, [pc, #388]	@ (80029a4 <UART_SetConfig+0x2d4>)
 800281e:	fba3 2302 	umull	r2, r3, r3, r2
 8002822:	095b      	lsrs	r3, r3, #5
 8002824:	011c      	lsls	r4, r3, #4
 8002826:	f8d7 30fc 	ldr.w	r3, [r7, #252]	@ 0xfc
 800282a:	2200      	movs	r2, #0
 800282c:	f8c7 30d0 	str.w	r3, [r7, #208]	@ 0xd0
 8002830:	f8c7 20d4 	str.w	r2, [r7, #212]	@ 0xd4
 8002834:	e9d7 8934 	ldrd	r8, r9, [r7, #208]	@ 0xd0
 8002838:	4642      	mov	r2, r8
 800283a:	464b      	mov	r3, r9
 800283c:	1891      	adds	r1, r2, r2
 800283e:	64b9      	str	r1, [r7, #72]	@ 0x48
 8002840:	415b      	adcs	r3, r3
 8002842:	64fb      	str	r3, [r7, #76]	@ 0x4c
 8002844:	e9d7 2312 	ldrd	r2, r3, [r7, #72]	@ 0x48
 8002848:	4641      	mov	r1, r8
 800284a:	eb12 0a01 	adds.w	sl, r2, r1
 800284e:	4649      	mov	r1, r9
 8002850:	eb43 0b01 	adc.w	fp, r3, r1
 8002854:	f04f 0200 	mov.w	r2, #0
 8002858:	f04f 0300 	mov.w	r3, #0
 800285c:	ea4f 03cb 	mov.w	r3, fp, lsl #3
 8002860:	ea43 735a 	orr.w	r3, r3, sl, lsr #29
 8002864:	ea4f 02ca 	mov.w	r2, sl, lsl #3
 8002868:	4692      	mov	sl, r2
 800286a:	469b      	mov	fp, r3
 800286c:	4643      	mov	r3, r8
 800286e:	eb1a 0303 	adds.w	r3, sl, r3
 8002872:	f8c7 30c8 	str.w	r3, [r7, #200]	@ 0xc8
 8002876:	464b      	mov	r3, r9
 8002878:	eb4b 0303 	adc.w	r3, fp, r3
 800287c:	f8c7 30cc 	str.w	r3, [r7, #204]	@ 0xcc
 8002880:	f8d7 30f4 	ldr.w	r3, [r7, #244]	@ 0xf4
 8002884:	685b      	ldr	r3, [r3, #4]
 8002886:	2200      	movs	r2, #0
 8002888:	f8c7 30c0 	str.w	r3, [r7, #192]	@ 0xc0
 800288c:	f8c7 20c4 	str.w	r2, [r7, #196]	@ 0xc4
 8002890:	e9d7 1230 	ldrd	r1, r2, [r7, #192]	@ 0xc0
 8002894:	460b      	mov	r3, r1
 8002896:	18db      	adds	r3, r3, r3
 8002898:	643b      	str	r3, [r7, #64]	@ 0x40
 800289a:	4613      	mov	r3, r2
 800289c:	eb42 0303 	adc.w	r3, r2, r3
 80028a0:	647b      	str	r3, [r7, #68]	@ 0x44
 80028a2:	e9d7 2310 	ldrd	r2, r3, [r7, #64]	@ 0x40
 80028a6:	e9d7 0132 	ldrd	r0, r1, [r7, #200]	@ 0xc8
 80028aa:	f7fd fc9f 	bl	80001ec <__aeabi_uldivmod>
 80028ae:	4602      	mov	r2, r0
 80028b0:	460b      	mov	r3, r1
 80028b2:	4611      	mov	r1, r2
 80028b4:	4b3b      	ldr	r3, [pc, #236]	@ (80029a4 <UART_SetConfig+0x2d4>)
 80028b6:	fba3 2301 	umull	r2, r3, r3, r1
 80028ba:	095b      	lsrs	r3, r3, #5
 80028bc:	2264      	movs	r2, #100	@ 0x64
 80028be:	fb02 f303 	mul.w	r3, r2, r3
 80028c2:	1acb      	subs	r3, r1, r3
 80028c4:	00db      	lsls	r3, r3, #3
 80028c6:	f103 0232 	add.w	r2, r3, #50	@ 0x32
 80028ca:	4b36      	ldr	r3, [pc, #216]	@ (80029a4 <UART_SetConfig+0x2d4>)
 80028cc:	fba3 2302 	umull	r2, r3, r3, r2
 80028d0:	095b      	lsrs	r3, r3, #5
 80028d2:	005b      	lsls	r3, r3, #1
 80028d4:	f403 73f8 	and.w	r3, r3, #496	@ 0x1f0
 80028d8:	441c      	add	r4, r3
 80028da:	f8d7 30fc 	ldr.w	r3, [r7, #252]	@ 0xfc
 80028de:	2200      	movs	r2, #0
 80028e0:	f8c7 30b8 	str.w	r3, [r7, #184]	@ 0xb8
 80028e4:	f8c7 20bc 	str.w	r2, [r7, #188]	@ 0xbc
 80028e8:	e9d7 892e 	ldrd	r8, r9, [r7, #184]	@ 0xb8
 80028ec:	4642      	mov	r2, r8
 80028ee:	464b      	mov	r3, r9
 80028f0:	1891      	adds	r1, r2, r2
 80028f2:	63b9      	str	r1, [r7, #56]	@ 0x38
 80028f4:	415b      	adcs	r3, r3
 80028f6:	63fb      	str	r3, [r7, #60]	@ 0x3c
 80028f8:	e9d7 230e 	ldrd	r2, r3, [r7, #56]	@ 0x38
 80028fc:	4641      	mov	r1, r8
 80028fe:	1851      	adds	r1, r2, r1
 8002900:	6339      	str	r1, [r7, #48]	@ 0x30
 8002902:	4649      	mov	r1, r9
 8002904:	414b      	adcs	r3, r1
 8002906:	637b      	str	r3, [r7, #52]	@ 0x34
 8002908:	f04f 0200 	mov.w	r2, #0
 800290c:	f04f 0300 	mov.w	r3, #0
 8002910:	e9d7 ab0c 	ldrd	sl, fp, [r7, #48]	@ 0x30
 8002914:	4659      	mov	r1, fp
 8002916:	00cb      	lsls	r3, r1, #3
 8002918:	4651      	mov	r1, sl
 800291a:	ea43 7351 	orr.w	r3, r3, r1, lsr #29
 800291e:	4651      	mov	r1, sl
 8002920:	00ca      	lsls	r2, r1, #3
 8002922:	4610      	mov	r0, r2
 8002924:	4619      	mov	r1, r3
 8002926:	4603      	mov	r3, r0
 8002928:	4642      	mov	r2, r8
 800292a:	189b      	adds	r3, r3, r2
 800292c:	f8c7 30b0 	str.w	r3, [r7, #176]	@ 0xb0
 8002930:	464b      	mov	r3, r9
 8002932:	460a      	mov	r2, r1
 8002934:	eb42 0303 	adc.w	r3, r2, r3
 8002938:	f8c7 30b4 	str.w	r3, [r7, #180]	@ 0xb4
 800293c:	f8d7 30f4 	ldr.w	r3, [r7, #244]	@ 0xf4
 8002940:	685b      	ldr	r3, [r3, #4]
 8002942:	2200      	movs	r2, #0
 8002944:	f8c7 30a8 	str.w	r3, [r7, #168]	@ 0xa8
 8002948:	f8c7 20ac 	str.w	r2, [r7, #172]	@ 0xac
 800294c:	e9d7 122a 	ldrd	r1, r2, [r7, #168]	@ 0xa8
 8002950:	460b      	mov	r3, r1
 8002952:	18db      	adds	r3, r3, r3
 8002954:	62bb      	str	r3, [r7, #40]	@ 0x28
 8002956:	4613      	mov	r3, r2
 8002958:	eb42 0303 	adc.w	r3, r2, r3
 800295c:	62fb      	str	r3, [r7, #44]	@ 0x2c
 800295e:	e9d7 230a 	ldrd	r2, r3, [r7, #40]	@ 0x28
 8002962:	e9d7 012c 	ldrd	r0, r1, [r7, #176]	@ 0xb0
 8002966:	f7fd fc41 	bl	80001ec <__aeabi_uldivmod>
 800296a:	4602      	mov	r2, r0
 800296c:	460b      	mov	r3, r1
 800296e:	4b0d      	ldr	r3, [pc, #52]	@ (80029a4 <UART_SetConfig+0x2d4>)
 8002970:	fba3 1302 	umull	r1, r3, r3, r2
 8002974:	095b      	lsrs	r3, r3, #5
 8002976:	2164      	movs	r1, #100	@ 0x64
 8002978:	fb01 f303 	mul.w	r3, r1, r3
 800297c:	1ad3      	subs	r3, r2, r3
 800297e:	00db      	lsls	r3, r3, #3
 8002980:	3332      	adds	r3, #50	@ 0x32
 8002982:	4a08      	ldr	r2, [pc, #32]	@ (80029a4 <UART_SetConfig+0x2d4>)
 8002984:	fba2 2303 	umull	r2, r3, r2, r3
 8002988:	095b      	lsrs	r3, r3, #5
 800298a:	f003 0207 	and.w	r2, r3, #7
 800298e:	f8d7 30f4 	ldr.w	r3, [r7, #244]	@ 0xf4
 8002992:	681b      	ldr	r3, [r3, #0]
 8002994:	4422      	add	r2, r4
 8002996:	609a      	str	r2, [r3, #8]
  }
  else
  {
    huart->Instance->BRR = UART_BRR_SAMPLING16(pclk, huart->Init.BaudRate);
  }
}
 8002998:	e106      	b.n	8002ba8 <UART_SetConfig+0x4d8>
 800299a:	bf00      	nop
 800299c:	40011000 	.word	0x40011000
 80029a0:	40011400 	.word	0x40011400
 80029a4:	51eb851f 	.word	0x51eb851f
    huart->Instance->BRR = UART_BRR_SAMPLING16(pclk, huart->Init.BaudRate);
 80029a8:	f8d7 30fc 	ldr.w	r3, [r7, #252]	@ 0xfc
 80029ac:	2200      	movs	r2, #0
 80029ae:	f8c7 30a0 	str.w	r3, [r7, #160]	@ 0xa0
 80029b2:	f8c7 20a4 	str.w	r2, [r7, #164]	@ 0xa4
 80029b6:	e9d7 8928 	ldrd	r8, r9, [r7, #160]	@ 0xa0
 80029ba:	4642      	mov	r2, r8
 80029bc:	464b      	mov	r3, r9
 80029be:	1891      	adds	r1, r2, r2
 80029c0:	6239      	str	r1, [r7, #32]
 80029c2:	415b      	adcs	r3, r3
 80029c4:	627b      	str	r3, [r7, #36]	@ 0x24
 80029c6:	e9d7 2308 	ldrd	r2, r3, [r7, #32]
 80029ca:	4641      	mov	r1, r8
 80029cc:	1854      	adds	r4, r2, r1
 80029ce:	4649      	mov	r1, r9
 80029d0:	eb43 0501 	adc.w	r5, r3, r1
 80029d4:	f04f 0200 	mov.w	r2, #0
 80029d8:	f04f 0300 	mov.w	r3, #0
 80029dc:	00eb      	lsls	r3, r5, #3
 80029de:	ea43 7354 	orr.w	r3, r3, r4, lsr #29
 80029e2:	00e2      	lsls	r2, r4, #3
 80029e4:	4614      	mov	r4, r2
 80029e6:	461d      	mov	r5, r3
 80029e8:	4643      	mov	r3, r8
 80029ea:	18e3      	adds	r3, r4, r3
 80029ec:	f8c7 3098 	str.w	r3, [r7, #152]	@ 0x98
 80029f0:	464b      	mov	r3, r9
 80029f2:	eb45 0303 	adc.w	r3, r5, r3
 80029f6:	f8c7 309c 	str.w	r3, [r7, #156]	@ 0x9c
 80029fa:	f8d7 30f4 	ldr.w	r3, [r7, #244]	@ 0xf4
 80029fe:	685b      	ldr	r3, [r3, #4]
 8002a00:	2200      	movs	r2, #0
 8002a02:	f8c7 3090 	str.w	r3, [r7, #144]	@ 0x90
 8002a06:	f8c7 2094 	str.w	r2, [r7, #148]	@ 0x94
 8002a0a:	f04f 0200 	mov.w	r2, #0
 8002a0e:	f04f 0300 	mov.w	r3, #0
 8002a12:	e9d7 4524 	ldrd	r4, r5, [r7, #144]	@ 0x90
 8002a16:	4629      	mov	r1, r5
 8002a18:	008b      	lsls	r3, r1, #2
 8002a1a:	4621      	mov	r1, r4
 8002a1c:	ea43 7391 	orr.w	r3, r3, r1, lsr #30
 8002a20:	4621      	mov	r1, r4
 8002a22:	008a      	lsls	r2, r1, #2
 8002a24:	e9d7 0126 	ldrd	r0, r1, [r7, #152]	@ 0x98
 8002a28:	f7fd fbe0 	bl	80001ec <__aeabi_uldivmod>
 8002a2c:	4602      	mov	r2, r0
 8002a2e:	460b      	mov	r3, r1
 8002a30:	4b60      	ldr	r3, [pc, #384]	@ (8002bb4 <UART_SetConfig+0x4e4>)
 8002a32:	fba3 2302 	umull	r2, r3, r3, r2
 8002a36:	095b      	lsrs	r3, r3, #5
 8002a38:	011c      	lsls	r4, r3, #4
 8002a3a:	f8d7 30fc 	ldr.w	r3, [r7, #252]	@ 0xfc
 8002a3e:	2200      	movs	r2, #0
 8002a40:	f8c7 3088 	str.w	r3, [r7, #136]	@ 0x88
 8002a44:	f8c7 208c 	str.w	r2, [r7, #140]	@ 0x8c
 8002a48:	e9d7 8922 	ldrd	r8, r9, [r7, #136]	@ 0x88
 8002a4c:	4642      	mov	r2, r8
 8002a4e:	464b      	mov	r3, r9
 8002a50:	1891      	adds	r1, r2, r2
 8002a52:	61b9      	str	r1, [r7, #24]
 8002a54:	415b      	adcs	r3, r3
 8002a56:	61fb      	str	r3, [r7, #28]
 8002a58:	e9d7 2306 	ldrd	r2, r3, [r7, #24]
 8002a5c:	4641      	mov	r1, r8
 8002a5e:	1851      	adds	r1, r2, r1
 8002a60:	6139      	str	r1, [r7, #16]
 8002a62:	4649      	mov	r1, r9
 8002a64:	414b      	adcs	r3, r1
 8002a66:	617b      	str	r3, [r7, #20]
 8002a68:	f04f 0200 	mov.w	r2, #0
 8002a6c:	f04f 0300 	mov.w	r3, #0
 8002a70:	e9d7 ab04 	ldrd	sl, fp, [r7, #16]
 8002a74:	4659      	mov	r1, fp
 8002a76:	00cb      	lsls	r3, r1, #3
 8002a78:	4651      	mov	r1, sl
 8002a7a:	ea43 7351 	orr.w	r3, r3, r1, lsr #29
 8002a7e:	4651      	mov	r1, sl
 8002a80:	00ca      	lsls	r2, r1, #3
 8002a82:	4610      	mov	r0, r2
 8002a84:	4619      	mov	r1, r3
 8002a86:	4603      	mov	r3, r0
 8002a88:	4642      	mov	r2, r8
 8002a8a:	189b      	adds	r3, r3, r2
 8002a8c:	f8c7 3080 	str.w	r3, [r7, #128]	@ 0x80
 8002a90:	464b      	mov	r3, r9
 8002a92:	460a      	mov	r2, r1
 8002a94:	eb42 0303 	adc.w	r3, r2, r3
 8002a98:	f8c7 3084 	str.w	r3, [r7, #132]	@ 0x84
 8002a9c:	f8d7 30f4 	ldr.w	r3, [r7, #244]	@ 0xf4
 8002aa0:	685b      	ldr	r3, [r3, #4]
 8002aa2:	2200      	movs	r2, #0
 8002aa4:	67bb      	str	r3, [r7, #120]	@ 0x78
 8002aa6:	67fa      	str	r2, [r7, #124]	@ 0x7c
 8002aa8:	f04f 0200 	mov.w	r2, #0
 8002aac:	f04f 0300 	mov.w	r3, #0
 8002ab0:	e9d7 891e 	ldrd	r8, r9, [r7, #120]	@ 0x78
 8002ab4:	4649      	mov	r1, r9
 8002ab6:	008b      	lsls	r3, r1, #2
 8002ab8:	4641      	mov	r1, r8
 8002aba:	ea43 7391 	orr.w	r3, r3, r1, lsr #30
 8002abe:	4641      	mov	r1, r8
 8002ac0:	008a      	lsls	r2, r1, #2
 8002ac2:	e9d7 0120 	ldrd	r0, r1, [r7, #128]	@ 0x80
 8002ac6:	f7fd fb91 	bl	80001ec <__aeabi_uldivmod>
 8002aca:	4602      	mov	r2, r0
 8002acc:	460b      	mov	r3, r1
 8002ace:	4611      	mov	r1, r2
 8002ad0:	4b38      	ldr	r3, [pc, #224]	@ (8002bb4 <UART_SetConfig+0x4e4>)
 8002ad2:	fba3 2301 	umull	r2, r3, r3, r1
 8002ad6:	095b      	lsrs	r3, r3, #5
 8002ad8:	2264      	movs	r2, #100	@ 0x64
 8002ada:	fb02 f303 	mul.w	r3, r2, r3
 8002ade:	1acb      	subs	r3, r1, r3
 8002ae0:	011b      	lsls	r3, r3, #4
 8002ae2:	3332      	adds	r3, #50	@ 0x32
 8002ae4:	4a33      	ldr	r2, [pc, #204]	@ (8002bb4 <UART_SetConfig+0x4e4>)
 8002ae6:	fba2 2303 	umull	r2, r3, r2, r3
 8002aea:	095b      	lsrs	r3, r3, #5
 8002aec:	f003 03f0 	and.w	r3, r3, #240	@ 0xf0
 8002af0:	441c      	add	r4, r3
 8002af2:	f8d7 30fc 	ldr.w	r3, [r7, #252]	@ 0xfc
 8002af6:	2200      	movs	r2, #0
 8002af8:	673b      	str	r3, [r7, #112]	@ 0x70
 8002afa:	677a      	str	r2, [r7, #116]	@ 0x74
 8002afc:	e9d7 891c 	ldrd	r8, r9, [r7, #112]	@ 0x70
 8002b00:	4642      	mov	r2, r8
 8002b02:	464b      	mov	r3, r9
 8002b04:	1891      	adds	r1, r2, r2
 8002b06:	60b9      	str	r1, [r7, #8]
 8002b08:	415b      	adcs	r3, r3
 8002b0a:	60fb      	str	r3, [r7, #12]
 8002b0c:	e9d7 2302 	ldrd	r2, r3, [r7, #8]
 8002b10:	4641      	mov	r1, r8
 8002b12:	1851      	adds	r1, r2, r1
 8002b14:	6039      	str	r1, [r7, #0]
 8002b16:	4649      	mov	r1, r9
 8002b18:	414b      	adcs	r3, r1
 8002b1a:	607b      	str	r3, [r7, #4]
 8002b1c:	f04f 0200 	mov.w	r2, #0
 8002b20:	f04f 0300 	mov.w	r3, #0
 8002b24:	e9d7 ab00 	ldrd	sl, fp, [r7]
 8002b28:	4659      	mov	r1, fp
 8002b2a:	00cb      	lsls	r3, r1, #3
 8002b2c:	4651      	mov	r1, sl
 8002b2e:	ea43 7351 	orr.w	r3, r3, r1, lsr #29
 8002b32:	4651      	mov	r1, sl
 8002b34:	00ca      	lsls	r2, r1, #3
 8002b36:	4610      	mov	r0, r2
 8002b38:	4619      	mov	r1, r3
 8002b3a:	4603      	mov	r3, r0
 8002b3c:	4642      	mov	r2, r8
 8002b3e:	189b      	adds	r3, r3, r2
 8002b40:	66bb      	str	r3, [r7, #104]	@ 0x68
 8002b42:	464b      	mov	r3, r9
 8002b44:	460a      	mov	r2, r1
 8002b46:	eb42 0303 	adc.w	r3, r2, r3
 8002b4a:	66fb      	str	r3, [r7, #108]	@ 0x6c
 8002b4c:	f8d7 30f4 	ldr.w	r3, [r7, #244]	@ 0xf4
 8002b50:	685b      	ldr	r3, [r3, #4]
 8002b52:	2200      	movs	r2, #0
 8002b54:	663b      	str	r3, [r7, #96]	@ 0x60
 8002b56:	667a      	str	r2, [r7, #100]	@ 0x64
 8002b58:	f04f 0200 	mov.w	r2, #0
 8002b5c:	f04f 0300 	mov.w	r3, #0
 8002b60:	e9d7 8918 	ldrd	r8, r9, [r7, #96]	@ 0x60
 8002b64:	4649      	mov	r1, r9
 8002b66:	008b      	lsls	r3, r1, #2
 8002b68:	4641      	mov	r1, r8
 8002b6a:	ea43 7391 	orr.w	r3, r3, r1, lsr #30
 8002b6e:	4641      	mov	r1, r8
 8002b70:	008a      	lsls	r2, r1, #2
 8002b72:	e9d7 011a 	ldrd	r0, r1, [r7, #104]	@ 0x68
 8002b76:	f7fd fb39 	bl	80001ec <__aeabi_uldivmod>
 8002b7a:	4602      	mov	r2, r0
 8002b7c:	460b      	mov	r3, r1
 8002b7e:	4b0d      	ldr	r3, [pc, #52]	@ (8002bb4 <UART_SetConfig+0x4e4>)
 8002b80:	fba3 1302 	umull	r1, r3, r3, r2
 8002b84:	095b      	lsrs	r3, r3, #5
 8002b86:	2164      	movs	r1, #100	@ 0x64
 8002b88:	fb01 f303 	mul.w	r3, r1, r3
 8002b8c:	1ad3      	subs	r3, r2, r3
 8002b8e:	011b      	lsls	r3, r3, #4
 8002b90:	3332      	adds	r3, #50	@ 0x32
 8002b92:	4a08      	ldr	r2, [pc, #32]	@ (8002bb4 <UART_SetConfig+0x4e4>)
 8002b94:	fba2 2303 	umull	r2, r3, r2, r3
 8002b98:	095b      	lsrs	r3, r3, #5
 8002b9a:	f003 020f 	and.w	r2, r3, #15
 8002b9e:	f8d7 30f4 	ldr.w	r3, [r7, #244]	@ 0xf4
 8002ba2:	681b      	ldr	r3, [r3, #0]
 8002ba4:	4422      	add	r2, r4
 8002ba6:	609a      	str	r2, [r3, #8]
}
 8002ba8:	bf00      	nop
 8002baa:	f507 7780 	add.w	r7, r7, #256	@ 0x100
 8002bae:	46bd      	mov	sp, r7
 8002bb0:	e8bd 8fb0 	ldmia.w	sp!, {r4, r5, r7, r8, r9, sl, fp, pc}
 8002bb4:	51eb851f 	.word	0x51eb851f

08002bb8 <USB_CoreInit>:
  * @param  cfg pointer to a USB_OTG_CfgTypeDef structure that contains
  *         the configuration information for the specified USBx peripheral.
  * @retval HAL status
  */
HAL_StatusTypeDef USB_CoreInit(USB_OTG_GlobalTypeDef *USBx, USB_OTG_CfgTypeDef cfg)
{
 8002bb8:	b084      	sub	sp, #16
 8002bba:	b580      	push	{r7, lr}
 8002bbc:	b084      	sub	sp, #16
 8002bbe:	af00      	add	r7, sp, #0
 8002bc0:	6078      	str	r0, [r7, #4]
 8002bc2:	f107 001c 	add.w	r0, r7, #28
 8002bc6:	e880 000e 	stmia.w	r0, {r1, r2, r3}
  HAL_StatusTypeDef ret;
  if (cfg.phy_itface == USB_OTG_ULPI_PHY)
 8002bca:	f897 3021 	ldrb.w	r3, [r7, #33]	@ 0x21
 8002bce:	2b01      	cmp	r3, #1
 8002bd0:	d123      	bne.n	8002c1a <USB_CoreInit+0x62>
  {
    USBx->GCCFG &= ~(USB_OTG_GCCFG_PWRDWN);
 8002bd2:	687b      	ldr	r3, [r7, #4]
 8002bd4:	6b9b      	ldr	r3, [r3, #56]	@ 0x38
 8002bd6:	f423 3280 	bic.w	r2, r3, #65536	@ 0x10000
 8002bda:	687b      	ldr	r3, [r7, #4]
 8002bdc:	639a      	str	r2, [r3, #56]	@ 0x38

    /* Init The ULPI Interface */
    USBx->GUSBCFG &= ~(USB_OTG_GUSBCFG_TSDPS | USB_OTG_GUSBCFG_ULPIFSLS | USB_OTG_GUSBCFG_PHYSEL);
 8002bde:	687b      	ldr	r3, [r7, #4]
 8002be0:	68db      	ldr	r3, [r3, #12]
 8002be2:	f423 0384 	bic.w	r3, r3, #4325376	@ 0x420000
 8002be6:	f023 0340 	bic.w	r3, r3, #64	@ 0x40
 8002bea:	687a      	ldr	r2, [r7, #4]
 8002bec:	60d3      	str	r3, [r2, #12]

    /* Select vbus source */
    USBx->GUSBCFG &= ~(USB_OTG_GUSBCFG_ULPIEVBUSD | USB_OTG_GUSBCFG_ULPIEVBUSI);
 8002bee:	687b      	ldr	r3, [r7, #4]
 8002bf0:	68db      	ldr	r3, [r3, #12]
 8002bf2:	f423 1240 	bic.w	r2, r3, #3145728	@ 0x300000
 8002bf6:	687b      	ldr	r3, [r7, #4]
 8002bf8:	60da      	str	r2, [r3, #12]
    if (cfg.use_external_vbus == 1U)
 8002bfa:	f897 3028 	ldrb.w	r3, [r7, #40]	@ 0x28
 8002bfe:	2b01      	cmp	r3, #1
 8002c00:	d105      	bne.n	8002c0e <USB_CoreInit+0x56>
    {
      USBx->GUSBCFG |= USB_OTG_GUSBCFG_ULPIEVBUSD;
 8002c02:	687b      	ldr	r3, [r7, #4]
 8002c04:	68db      	ldr	r3, [r3, #12]
 8002c06:	f443 1280 	orr.w	r2, r3, #1048576	@ 0x100000
 8002c0a:	687b      	ldr	r3, [r7, #4]
 8002c0c:	60da      	str	r2, [r3, #12]
    }

    /* Reset after a PHY select */
    ret = USB_CoreReset(USBx);
 8002c0e:	6878      	ldr	r0, [r7, #4]
 8002c10:	f000 faa0 	bl	8003154 <USB_CoreReset>
 8002c14:	4603      	mov	r3, r0
 8002c16:	73fb      	strb	r3, [r7, #15]
 8002c18:	e01b      	b.n	8002c52 <USB_CoreInit+0x9a>
  }
  else /* FS interface (embedded Phy) */
  {
    /* Select FS Embedded PHY */
    USBx->GUSBCFG |= USB_OTG_GUSBCFG_PHYSEL;
 8002c1a:	687b      	ldr	r3, [r7, #4]
 8002c1c:	68db      	ldr	r3, [r3, #12]
 8002c1e:	f043 0240 	orr.w	r2, r3, #64	@ 0x40
 8002c22:	687b      	ldr	r3, [r7, #4]
 8002c24:	60da      	str	r2, [r3, #12]

    /* Reset after a PHY select */
    ret = USB_CoreReset(USBx);
 8002c26:	6878      	ldr	r0, [r7, #4]
 8002c28:	f000 fa94 	bl	8003154 <USB_CoreReset>
 8002c2c:	4603      	mov	r3, r0
 8002c2e:	73fb      	strb	r3, [r7, #15]

    if (cfg.battery_charging_enable == 0U)
 8002c30:	f897 3025 	ldrb.w	r3, [r7, #37]	@ 0x25
 8002c34:	2b00      	cmp	r3, #0
 8002c36:	d106      	bne.n	8002c46 <USB_CoreInit+0x8e>
    {
      /* Activate the USB Transceiver */
      USBx->GCCFG |= USB_OTG_GCCFG_PWRDWN;
 8002c38:	687b      	ldr	r3, [r7, #4]
 8002c3a:	6b9b      	ldr	r3, [r3, #56]	@ 0x38
 8002c3c:	f443 3280 	orr.w	r2, r3, #65536	@ 0x10000
 8002c40:	687b      	ldr	r3, [r7, #4]
 8002c42:	639a      	str	r2, [r3, #56]	@ 0x38
 8002c44:	e005      	b.n	8002c52 <USB_CoreInit+0x9a>
    }
    else
    {
      /* Deactivate the USB Transceiver */
      USBx->GCCFG &= ~(USB_OTG_GCCFG_PWRDWN);
 8002c46:	687b      	ldr	r3, [r7, #4]
 8002c48:	6b9b      	ldr	r3, [r3, #56]	@ 0x38
 8002c4a:	f423 3280 	bic.w	r2, r3, #65536	@ 0x10000
 8002c4e:	687b      	ldr	r3, [r7, #4]
 8002c50:	639a      	str	r2, [r3, #56]	@ 0x38
    }
  }

  if (cfg.dma_enable == 1U)
 8002c52:	7fbb      	ldrb	r3, [r7, #30]
 8002c54:	2b01      	cmp	r3, #1
 8002c56:	d10b      	bne.n	8002c70 <USB_CoreInit+0xb8>
  {
    USBx->GAHBCFG |= USB_OTG_GAHBCFG_HBSTLEN_2;
 8002c58:	687b      	ldr	r3, [r7, #4]
 8002c5a:	689b      	ldr	r3, [r3, #8]
 8002c5c:	f043 0206 	orr.w	r2, r3, #6
 8002c60:	687b      	ldr	r3, [r7, #4]
 8002c62:	609a      	str	r2, [r3, #8]
    USBx->GAHBCFG |= USB_OTG_GAHBCFG_DMAEN;
 8002c64:	687b      	ldr	r3, [r7, #4]
 8002c66:	689b      	ldr	r3, [r3, #8]
 8002c68:	f043 0220 	orr.w	r2, r3, #32
 8002c6c:	687b      	ldr	r3, [r7, #4]
 8002c6e:	609a      	str	r2, [r3, #8]
  }

  return ret;
 8002c70:	7bfb      	ldrb	r3, [r7, #15]
}
 8002c72:	4618      	mov	r0, r3
 8002c74:	3710      	adds	r7, #16
 8002c76:	46bd      	mov	sp, r7
 8002c78:	e8bd 4080 	ldmia.w	sp!, {r7, lr}
 8002c7c:	b004      	add	sp, #16
 8002c7e:	4770      	bx	lr

08002c80 <USB_DisableGlobalInt>:
  *         Disable the controller's Global Int in the AHB Config reg
  * @param  USBx  Selected device
  * @retval HAL status
  */
HAL_StatusTypeDef USB_DisableGlobalInt(USB_OTG_GlobalTypeDef *USBx)
{
 8002c80:	b480      	push	{r7}
 8002c82:	b083      	sub	sp, #12
 8002c84:	af00      	add	r7, sp, #0
 8002c86:	6078      	str	r0, [r7, #4]
  USBx->GAHBCFG &= ~USB_OTG_GAHBCFG_GINT;
 8002c88:	687b      	ldr	r3, [r7, #4]
 8002c8a:	689b      	ldr	r3, [r3, #8]
 8002c8c:	f023 0201 	bic.w	r2, r3, #1
 8002c90:	687b      	ldr	r3, [r7, #4]
 8002c92:	609a      	str	r2, [r3, #8]
  return HAL_OK;
 8002c94:	2300      	movs	r3, #0
}
 8002c96:	4618      	mov	r0, r3
 8002c98:	370c      	adds	r7, #12
 8002c9a:	46bd      	mov	sp, r7
 8002c9c:	f85d 7b04 	ldr.w	r7, [sp], #4
 8002ca0:	4770      	bx	lr

08002ca2 <USB_SetCurrentMode>:
  *            @arg USB_DEVICE_MODE Peripheral mode
  *            @arg USB_HOST_MODE Host mode
  * @retval HAL status
  */
HAL_StatusTypeDef USB_SetCurrentMode(USB_OTG_GlobalTypeDef *USBx, USB_OTG_ModeTypeDef mode)
{
 8002ca2:	b580      	push	{r7, lr}
 8002ca4:	b084      	sub	sp, #16
 8002ca6:	af00      	add	r7, sp, #0
 8002ca8:	6078      	str	r0, [r7, #4]
 8002caa:	460b      	mov	r3, r1
 8002cac:	70fb      	strb	r3, [r7, #3]
  uint32_t ms = 0U;
 8002cae:	2300      	movs	r3, #0
 8002cb0:	60fb      	str	r3, [r7, #12]

  USBx->GUSBCFG &= ~(USB_OTG_GUSBCFG_FHMOD | USB_OTG_GUSBCFG_FDMOD);
 8002cb2:	687b      	ldr	r3, [r7, #4]
 8002cb4:	68db      	ldr	r3, [r3, #12]
 8002cb6:	f023 42c0 	bic.w	r2, r3, #1610612736	@ 0x60000000
 8002cba:	687b      	ldr	r3, [r7, #4]
 8002cbc:	60da      	str	r2, [r3, #12]

  if (mode == USB_HOST_MODE)
 8002cbe:	78fb      	ldrb	r3, [r7, #3]
 8002cc0:	2b01      	cmp	r3, #1
 8002cc2:	d115      	bne.n	8002cf0 <USB_SetCurrentMode+0x4e>
  {
    USBx->GUSBCFG |= USB_OTG_GUSBCFG_FHMOD;
 8002cc4:	687b      	ldr	r3, [r7, #4]
 8002cc6:	68db      	ldr	r3, [r3, #12]
 8002cc8:	f043 5200 	orr.w	r2, r3, #536870912	@ 0x20000000
 8002ccc:	687b      	ldr	r3, [r7, #4]
 8002cce:	60da      	str	r2, [r3, #12]

    do
    {
      HAL_Delay(10U);
 8002cd0:	200a      	movs	r0, #10
 8002cd2:	f7fe f8e7 	bl	8000ea4 <HAL_Delay>
      ms += 10U;
 8002cd6:	68fb      	ldr	r3, [r7, #12]
 8002cd8:	330a      	adds	r3, #10
 8002cda:	60fb      	str	r3, [r7, #12]
    } while ((USB_GetMode(USBx) != (uint32_t)USB_HOST_MODE) && (ms < HAL_USB_CURRENT_MODE_MAX_DELAY_MS));
 8002cdc:	6878      	ldr	r0, [r7, #4]
 8002cde:	f000 fa2b 	bl	8003138 <USB_GetMode>
 8002ce2:	4603      	mov	r3, r0
 8002ce4:	2b01      	cmp	r3, #1
 8002ce6:	d01e      	beq.n	8002d26 <USB_SetCurrentMode+0x84>
 8002ce8:	68fb      	ldr	r3, [r7, #12]
 8002cea:	2bc7      	cmp	r3, #199	@ 0xc7
 8002cec:	d9f0      	bls.n	8002cd0 <USB_SetCurrentMode+0x2e>
 8002cee:	e01a      	b.n	8002d26 <USB_SetCurrentMode+0x84>
  }
  else if (mode == USB_DEVICE_MODE)
 8002cf0:	78fb      	ldrb	r3, [r7, #3]
 8002cf2:	2b00      	cmp	r3, #0
 8002cf4:	d115      	bne.n	8002d22 <USB_SetCurrentMode+0x80>
  {
    USBx->GUSBCFG |= USB_OTG_GUSBCFG_FDMOD;
 8002cf6:	687b      	ldr	r3, [r7, #4]
 8002cf8:	68db      	ldr	r3, [r3, #12]
 8002cfa:	f043 4280 	orr.w	r2, r3, #1073741824	@ 0x40000000
 8002cfe:	687b      	ldr	r3, [r7, #4]
 8002d00:	60da      	str	r2, [r3, #12]

    do
    {
      HAL_Delay(10U);
 8002d02:	200a      	movs	r0, #10
 8002d04:	f7fe f8ce 	bl	8000ea4 <HAL_Delay>
      ms += 10U;
 8002d08:	68fb      	ldr	r3, [r7, #12]
 8002d0a:	330a      	adds	r3, #10
 8002d0c:	60fb      	str	r3, [r7, #12]
    } while ((USB_GetMode(USBx) != (uint32_t)USB_DEVICE_MODE) && (ms < HAL_USB_CURRENT_MODE_MAX_DELAY_MS));
 8002d0e:	6878      	ldr	r0, [r7, #4]
 8002d10:	f000 fa12 	bl	8003138 <USB_GetMode>
 8002d14:	4603      	mov	r3, r0
 8002d16:	2b00      	cmp	r3, #0
 8002d18:	d005      	beq.n	8002d26 <USB_SetCurrentMode+0x84>
 8002d1a:	68fb      	ldr	r3, [r7, #12]
 8002d1c:	2bc7      	cmp	r3, #199	@ 0xc7
 8002d1e:	d9f0      	bls.n	8002d02 <USB_SetCurrentMode+0x60>
 8002d20:	e001      	b.n	8002d26 <USB_SetCurrentMode+0x84>
  }
  else
  {
    return HAL_ERROR;
 8002d22:	2301      	movs	r3, #1
 8002d24:	e005      	b.n	8002d32 <USB_SetCurrentMode+0x90>
  }

  if (ms == HAL_USB_CURRENT_MODE_MAX_DELAY_MS)
 8002d26:	68fb      	ldr	r3, [r7, #12]
 8002d28:	2bc8      	cmp	r3, #200	@ 0xc8
 8002d2a:	d101      	bne.n	8002d30 <USB_SetCurrentMode+0x8e>
  {
    return HAL_ERROR;
 8002d2c:	2301      	movs	r3, #1
 8002d2e:	e000      	b.n	8002d32 <USB_SetCurrentMode+0x90>
  }

  return HAL_OK;
 8002d30:	2300      	movs	r3, #0
}
 8002d32:	4618      	mov	r0, r3
 8002d34:	3710      	adds	r7, #16
 8002d36:	46bd      	mov	sp, r7
 8002d38:	bd80      	pop	{r7, pc}
	...

08002d3c <USB_DevInit>:
  * @param  cfg   pointer to a USB_OTG_CfgTypeDef structure that contains
  *         the configuration information for the specified USBx peripheral.
  * @retval HAL status
  */
HAL_StatusTypeDef USB_DevInit(USB_OTG_GlobalTypeDef *USBx, USB_OTG_CfgTypeDef cfg)
{
 8002d3c:	b084      	sub	sp, #16
 8002d3e:	b580      	push	{r7, lr}
 8002d40:	b086      	sub	sp, #24
 8002d42:	af00      	add	r7, sp, #0
 8002d44:	6078      	str	r0, [r7, #4]
 8002d46:	f107 0024 	add.w	r0, r7, #36	@ 0x24
 8002d4a:	e880 000e 	stmia.w	r0, {r1, r2, r3}
  HAL_StatusTypeDef ret = HAL_OK;
 8002d4e:	2300      	movs	r3, #0
 8002d50:	75fb      	strb	r3, [r7, #23]
  uint32_t USBx_BASE = (uint32_t)USBx;
 8002d52:	687b      	ldr	r3, [r7, #4]
 8002d54:	60fb      	str	r3, [r7, #12]
  uint32_t i;

  for (i = 0U; i < 15U; i++)
 8002d56:	2300      	movs	r3, #0
 8002d58:	613b      	str	r3, [r7, #16]
 8002d5a:	e009      	b.n	8002d70 <USB_DevInit+0x34>
  {
    USBx->DIEPTXF[i] = 0U;
 8002d5c:	687a      	ldr	r2, [r7, #4]
 8002d5e:	693b      	ldr	r3, [r7, #16]
 8002d60:	3340      	adds	r3, #64	@ 0x40
 8002d62:	009b      	lsls	r3, r3, #2
 8002d64:	4413      	add	r3, r2
 8002d66:	2200      	movs	r2, #0
 8002d68:	605a      	str	r2, [r3, #4]
  for (i = 0U; i < 15U; i++)
 8002d6a:	693b      	ldr	r3, [r7, #16]
 8002d6c:	3301      	adds	r3, #1
 8002d6e:	613b      	str	r3, [r7, #16]
 8002d70:	693b      	ldr	r3, [r7, #16]
 8002d72:	2b0e      	cmp	r3, #14
 8002d74:	d9f2      	bls.n	8002d5c <USB_DevInit+0x20>
    /* Enable HW VBUS sensing */
    USBx->GCCFG |= USB_OTG_GCCFG_VBDEN;
  }
#else
  /* VBUS Sensing setup */
  if (cfg.vbus_sensing_enable == 0U)
 8002d76:	f897 302e 	ldrb.w	r3, [r7, #46]	@ 0x2e
 8002d7a:	2b00      	cmp	r3, #0
 8002d7c:	d11c      	bne.n	8002db8 <USB_DevInit+0x7c>
  {
    /*
     * Disable HW VBUS sensing. VBUS is internally considered to be always
     * at VBUS-Valid level (5V).
     */
    USBx_DEVICE->DCTL |= USB_OTG_DCTL_SDIS;
 8002d7e:	68fb      	ldr	r3, [r7, #12]
 8002d80:	f503 6300 	add.w	r3, r3, #2048	@ 0x800
 8002d84:	685b      	ldr	r3, [r3, #4]
 8002d86:	68fa      	ldr	r2, [r7, #12]
 8002d88:	f502 6200 	add.w	r2, r2, #2048	@ 0x800
 8002d8c:	f043 0302 	orr.w	r3, r3, #2
 8002d90:	6053      	str	r3, [r2, #4]
    USBx->GCCFG |= USB_OTG_GCCFG_NOVBUSSENS;
 8002d92:	687b      	ldr	r3, [r7, #4]
 8002d94:	6b9b      	ldr	r3, [r3, #56]	@ 0x38
 8002d96:	f443 1200 	orr.w	r2, r3, #2097152	@ 0x200000
 8002d9a:	687b      	ldr	r3, [r7, #4]
 8002d9c:	639a      	str	r2, [r3, #56]	@ 0x38
    USBx->GCCFG &= ~USB_OTG_GCCFG_VBUSBSEN;
 8002d9e:	687b      	ldr	r3, [r7, #4]
 8002da0:	6b9b      	ldr	r3, [r3, #56]	@ 0x38
 8002da2:	f423 2200 	bic.w	r2, r3, #524288	@ 0x80000
 8002da6:	687b      	ldr	r3, [r7, #4]
 8002da8:	639a      	str	r2, [r3, #56]	@ 0x38
    USBx->GCCFG &= ~USB_OTG_GCCFG_VBUSASEN;
 8002daa:	687b      	ldr	r3, [r7, #4]
 8002dac:	6b9b      	ldr	r3, [r3, #56]	@ 0x38
 8002dae:	f423 2280 	bic.w	r2, r3, #262144	@ 0x40000
 8002db2:	687b      	ldr	r3, [r7, #4]
 8002db4:	639a      	str	r2, [r3, #56]	@ 0x38
 8002db6:	e00b      	b.n	8002dd0 <USB_DevInit+0x94>
  }
  else
  {
    /* Enable HW VBUS sensing */
    USBx->GCCFG &= ~USB_OTG_GCCFG_NOVBUSSENS;
 8002db8:	687b      	ldr	r3, [r7, #4]
 8002dba:	6b9b      	ldr	r3, [r3, #56]	@ 0x38
 8002dbc:	f423 1200 	bic.w	r2, r3, #2097152	@ 0x200000
 8002dc0:	687b      	ldr	r3, [r7, #4]
 8002dc2:	639a      	str	r2, [r3, #56]	@ 0x38
    USBx->GCCFG |= USB_OTG_GCCFG_VBUSBSEN;
 8002dc4:	687b      	ldr	r3, [r7, #4]
 8002dc6:	6b9b      	ldr	r3, [r3, #56]	@ 0x38
 8002dc8:	f443 2200 	orr.w	r2, r3, #524288	@ 0x80000
 8002dcc:	687b      	ldr	r3, [r7, #4]
 8002dce:	639a      	str	r2, [r3, #56]	@ 0x38
#endif /* defined(STM32F446xx) || defined(STM32F469xx) || defined(STM32F479xx) || defined(STM32F412Zx) ||
          defined(STM32F412Vx) || defined(STM32F412Rx) || defined(STM32F412Cx) || defined(STM32F413xx) ||
          defined(STM32F423xx) */

  /* Restart the Phy Clock */
  USBx_PCGCCTL = 0U;
 8002dd0:	68fb      	ldr	r3, [r7, #12]
 8002dd2:	f503 6360 	add.w	r3, r3, #3584	@ 0xe00
 8002dd6:	461a      	mov	r2, r3
 8002dd8:	2300      	movs	r3, #0
 8002dda:	6013      	str	r3, [r2, #0]

  if (cfg.phy_itface == USB_OTG_ULPI_PHY)
 8002ddc:	f897 3029 	ldrb.w	r3, [r7, #41]	@ 0x29
 8002de0:	2b01      	cmp	r3, #1
 8002de2:	d10d      	bne.n	8002e00 <USB_DevInit+0xc4>
  {
    if (cfg.speed == USBD_HS_SPEED)
 8002de4:	f897 3027 	ldrb.w	r3, [r7, #39]	@ 0x27
 8002de8:	2b00      	cmp	r3, #0
 8002dea:	d104      	bne.n	8002df6 <USB_DevInit+0xba>
    {
      /* Set Core speed to High speed mode */
      (void)USB_SetDevSpeed(USBx, USB_OTG_SPEED_HIGH);
 8002dec:	2100      	movs	r1, #0
 8002dee:	6878      	ldr	r0, [r7, #4]
 8002df0:	f000 f968 	bl	80030c4 <USB_SetDevSpeed>
 8002df4:	e008      	b.n	8002e08 <USB_DevInit+0xcc>
    }
    else
    {
      /* Set Core speed to Full speed mode */
      (void)USB_SetDevSpeed(USBx, USB_OTG_SPEED_HIGH_IN_FULL);
 8002df6:	2101      	movs	r1, #1
 8002df8:	6878      	ldr	r0, [r7, #4]
 8002dfa:	f000 f963 	bl	80030c4 <USB_SetDevSpeed>
 8002dfe:	e003      	b.n	8002e08 <USB_DevInit+0xcc>
    }
  }
  else
  {
    /* Set Core speed to Full speed mode */
    (void)USB_SetDevSpeed(USBx, USB_OTG_SPEED_FULL);
 8002e00:	2103      	movs	r1, #3
 8002e02:	6878      	ldr	r0, [r7, #4]
 8002e04:	f000 f95e 	bl	80030c4 <USB_SetDevSpeed>
  }

  /* Flush the FIFOs */
  if (USB_FlushTxFifo(USBx, 0x10U) != HAL_OK) /* all Tx FIFOs */
 8002e08:	2110      	movs	r1, #16
 8002e0a:	6878      	ldr	r0, [r7, #4]
 8002e0c:	f000 f8fa 	bl	8003004 <USB_FlushTxFifo>
 8002e10:	4603      	mov	r3, r0
 8002e12:	2b00      	cmp	r3, #0
 8002e14:	d001      	beq.n	8002e1a <USB_DevInit+0xde>
  {
    ret = HAL_ERROR;
 8002e16:	2301      	movs	r3, #1
 8002e18:	75fb      	strb	r3, [r7, #23]
  }

  if (USB_FlushRxFifo(USBx) != HAL_OK)
 8002e1a:	6878      	ldr	r0, [r7, #4]
 8002e1c:	f000 f924 	bl	8003068 <USB_FlushRxFifo>
 8002e20:	4603      	mov	r3, r0
 8002e22:	2b00      	cmp	r3, #0
 8002e24:	d001      	beq.n	8002e2a <USB_DevInit+0xee>
  {
    ret = HAL_ERROR;
 8002e26:	2301      	movs	r3, #1
 8002e28:	75fb      	strb	r3, [r7, #23]
  }

  /* Clear all pending Device Interrupts */
  USBx_DEVICE->DIEPMSK = 0U;
 8002e2a:	68fb      	ldr	r3, [r7, #12]
 8002e2c:	f503 6300 	add.w	r3, r3, #2048	@ 0x800
 8002e30:	461a      	mov	r2, r3
 8002e32:	2300      	movs	r3, #0
 8002e34:	6113      	str	r3, [r2, #16]
  USBx_DEVICE->DOEPMSK = 0U;
 8002e36:	68fb      	ldr	r3, [r7, #12]
 8002e38:	f503 6300 	add.w	r3, r3, #2048	@ 0x800
 8002e3c:	461a      	mov	r2, r3
 8002e3e:	2300      	movs	r3, #0
 8002e40:	6153      	str	r3, [r2, #20]
  USBx_DEVICE->DAINTMSK = 0U;
 8002e42:	68fb      	ldr	r3, [r7, #12]
 8002e44:	f503 6300 	add.w	r3, r3, #2048	@ 0x800
 8002e48:	461a      	mov	r2, r3
 8002e4a:	2300      	movs	r3, #0
 8002e4c:	61d3      	str	r3, [r2, #28]

  for (i = 0U; i < cfg.dev_endpoints; i++)
 8002e4e:	2300      	movs	r3, #0
 8002e50:	613b      	str	r3, [r7, #16]
 8002e52:	e043      	b.n	8002edc <USB_DevInit+0x1a0>
  {
    if ((USBx_INEP(i)->DIEPCTL & USB_OTG_DIEPCTL_EPENA) == USB_OTG_DIEPCTL_EPENA)
 8002e54:	693b      	ldr	r3, [r7, #16]
 8002e56:	015a      	lsls	r2, r3, #5
 8002e58:	68fb      	ldr	r3, [r7, #12]
 8002e5a:	4413      	add	r3, r2
 8002e5c:	f503 6310 	add.w	r3, r3, #2304	@ 0x900
 8002e60:	681b      	ldr	r3, [r3, #0]
 8002e62:	f003 4300 	and.w	r3, r3, #2147483648	@ 0x80000000
 8002e66:	f1b3 4f00 	cmp.w	r3, #2147483648	@ 0x80000000
 8002e6a:	d118      	bne.n	8002e9e <USB_DevInit+0x162>
    {
      if (i == 0U)
 8002e6c:	693b      	ldr	r3, [r7, #16]
 8002e6e:	2b00      	cmp	r3, #0
 8002e70:	d10a      	bne.n	8002e88 <USB_DevInit+0x14c>
      {
        USBx_INEP(i)->DIEPCTL = USB_OTG_DIEPCTL_SNAK;
 8002e72:	693b      	ldr	r3, [r7, #16]
 8002e74:	015a      	lsls	r2, r3, #5
 8002e76:	68fb      	ldr	r3, [r7, #12]
 8002e78:	4413      	add	r3, r2
 8002e7a:	f503 6310 	add.w	r3, r3, #2304	@ 0x900
 8002e7e:	461a      	mov	r2, r3
 8002e80:	f04f 6300 	mov.w	r3, #134217728	@ 0x8000000
 8002e84:	6013      	str	r3, [r2, #0]
 8002e86:	e013      	b.n	8002eb0 <USB_DevInit+0x174>
      }
      else
      {
        USBx_INEP(i)->DIEPCTL = USB_OTG_DIEPCTL_EPDIS | USB_OTG_DIEPCTL_SNAK;
 8002e88:	693b      	ldr	r3, [r7, #16]
 8002e8a:	015a      	lsls	r2, r3, #5
 8002e8c:	68fb      	ldr	r3, [r7, #12]
 8002e8e:	4413      	add	r3, r2
 8002e90:	f503 6310 	add.w	r3, r3, #2304	@ 0x900
 8002e94:	461a      	mov	r2, r3
 8002e96:	f04f 4390 	mov.w	r3, #1207959552	@ 0x48000000
 8002e9a:	6013      	str	r3, [r2, #0]
 8002e9c:	e008      	b.n	8002eb0 <USB_DevInit+0x174>
      }
    }
    else
    {
      USBx_INEP(i)->DIEPCTL = 0U;
 8002e9e:	693b      	ldr	r3, [r7, #16]
 8002ea0:	015a      	lsls	r2, r3, #5
 8002ea2:	68fb      	ldr	r3, [r7, #12]
 8002ea4:	4413      	add	r3, r2
 8002ea6:	f503 6310 	add.w	r3, r3, #2304	@ 0x900
 8002eaa:	461a      	mov	r2, r3
 8002eac:	2300      	movs	r3, #0
 8002eae:	6013      	str	r3, [r2, #0]
    }

    USBx_INEP(i)->DIEPTSIZ = 0U;
 8002eb0:	693b      	ldr	r3, [r7, #16]
 8002eb2:	015a      	lsls	r2, r3, #5
 8002eb4:	68fb      	ldr	r3, [r7, #12]
 8002eb6:	4413      	add	r3, r2
 8002eb8:	f503 6310 	add.w	r3, r3, #2304	@ 0x900
 8002ebc:	461a      	mov	r2, r3
 8002ebe:	2300      	movs	r3, #0
 8002ec0:	6113      	str	r3, [r2, #16]
    USBx_INEP(i)->DIEPINT  = 0xFB7FU;
 8002ec2:	693b      	ldr	r3, [r7, #16]
 8002ec4:	015a      	lsls	r2, r3, #5
 8002ec6:	68fb      	ldr	r3, [r7, #12]
 8002ec8:	4413      	add	r3, r2
 8002eca:	f503 6310 	add.w	r3, r3, #2304	@ 0x900
 8002ece:	461a      	mov	r2, r3
 8002ed0:	f64f 337f 	movw	r3, #64383	@ 0xfb7f
 8002ed4:	6093      	str	r3, [r2, #8]
  for (i = 0U; i < cfg.dev_endpoints; i++)
 8002ed6:	693b      	ldr	r3, [r7, #16]
 8002ed8:	3301      	adds	r3, #1
 8002eda:	613b      	str	r3, [r7, #16]
 8002edc:	f897 3024 	ldrb.w	r3, [r7, #36]	@ 0x24
 8002ee0:	461a      	mov	r2, r3
 8002ee2:	693b      	ldr	r3, [r7, #16]
 8002ee4:	4293      	cmp	r3, r2
 8002ee6:	d3b5      	bcc.n	8002e54 <USB_DevInit+0x118>
  }

  for (i = 0U; i < cfg.dev_endpoints; i++)
 8002ee8:	2300      	movs	r3, #0
 8002eea:	613b      	str	r3, [r7, #16]
 8002eec:	e043      	b.n	8002f76 <USB_DevInit+0x23a>
  {
    if ((USBx_OUTEP(i)->DOEPCTL & USB_OTG_DOEPCTL_EPENA) == USB_OTG_DOEPCTL_EPENA)
 8002eee:	693b      	ldr	r3, [r7, #16]
 8002ef0:	015a      	lsls	r2, r3, #5
 8002ef2:	68fb      	ldr	r3, [r7, #12]
 8002ef4:	4413      	add	r3, r2
 8002ef6:	f503 6330 	add.w	r3, r3, #2816	@ 0xb00
 8002efa:	681b      	ldr	r3, [r3, #0]
 8002efc:	f003 4300 	and.w	r3, r3, #2147483648	@ 0x80000000
 8002f00:	f1b3 4f00 	cmp.w	r3, #2147483648	@ 0x80000000
 8002f04:	d118      	bne.n	8002f38 <USB_DevInit+0x1fc>
    {
      if (i == 0U)
 8002f06:	693b      	ldr	r3, [r7, #16]
 8002f08:	2b00      	cmp	r3, #0
 8002f0a:	d10a      	bne.n	8002f22 <USB_DevInit+0x1e6>
      {
        USBx_OUTEP(i)->DOEPCTL = USB_OTG_DOEPCTL_SNAK;
 8002f0c:	693b      	ldr	r3, [r7, #16]
 8002f0e:	015a      	lsls	r2, r3, #5
 8002f10:	68fb      	ldr	r3, [r7, #12]
 8002f12:	4413      	add	r3, r2
 8002f14:	f503 6330 	add.w	r3, r3, #2816	@ 0xb00
 8002f18:	461a      	mov	r2, r3
 8002f1a:	f04f 6300 	mov.w	r3, #134217728	@ 0x8000000
 8002f1e:	6013      	str	r3, [r2, #0]
 8002f20:	e013      	b.n	8002f4a <USB_DevInit+0x20e>
      }
      else
      {
        USBx_OUTEP(i)->DOEPCTL = USB_OTG_DOEPCTL_EPDIS | USB_OTG_DOEPCTL_SNAK;
 8002f22:	693b      	ldr	r3, [r7, #16]
 8002f24:	015a      	lsls	r2, r3, #5
 8002f26:	68fb      	ldr	r3, [r7, #12]
 8002f28:	4413      	add	r3, r2
 8002f2a:	f503 6330 	add.w	r3, r3, #2816	@ 0xb00
 8002f2e:	461a      	mov	r2, r3
 8002f30:	f04f 4390 	mov.w	r3, #1207959552	@ 0x48000000
 8002f34:	6013      	str	r3, [r2, #0]
 8002f36:	e008      	b.n	8002f4a <USB_DevInit+0x20e>
      }
    }
    else
    {
      USBx_OUTEP(i)->DOEPCTL = 0U;
 8002f38:	693b      	ldr	r3, [r7, #16]
 8002f3a:	015a      	lsls	r2, r3, #5
 8002f3c:	68fb      	ldr	r3, [r7, #12]
 8002f3e:	4413      	add	r3, r2
 8002f40:	f503 6330 	add.w	r3, r3, #2816	@ 0xb00
 8002f44:	461a      	mov	r2, r3
 8002f46:	2300      	movs	r3, #0
 8002f48:	6013      	str	r3, [r2, #0]
    }

    USBx_OUTEP(i)->DOEPTSIZ = 0U;
 8002f4a:	693b      	ldr	r3, [r7, #16]
 8002f4c:	015a      	lsls	r2, r3, #5
 8002f4e:	68fb      	ldr	r3, [r7, #12]
 8002f50:	4413      	add	r3, r2
 8002f52:	f503 6330 	add.w	r3, r3, #2816	@ 0xb00
 8002f56:	461a      	mov	r2, r3
 8002f58:	2300      	movs	r3, #0
 8002f5a:	6113      	str	r3, [r2, #16]
    USBx_OUTEP(i)->DOEPINT  = 0xFB7FU;
 8002f5c:	693b      	ldr	r3, [r7, #16]
 8002f5e:	015a      	lsls	r2, r3, #5
 8002f60:	68fb      	ldr	r3, [r7, #12]
 8002f62:	4413      	add	r3, r2
 8002f64:	f503 6330 	add.w	r3, r3, #2816	@ 0xb00
 8002f68:	461a      	mov	r2, r3
 8002f6a:	f64f 337f 	movw	r3, #64383	@ 0xfb7f
 8002f6e:	6093      	str	r3, [r2, #8]
  for (i = 0U; i < cfg.dev_endpoints; i++)
 8002f70:	693b      	ldr	r3, [r7, #16]
 8002f72:	3301      	adds	r3, #1
 8002f74:	613b      	str	r3, [r7, #16]
 8002f76:	f897 3024 	ldrb.w	r3, [r7, #36]	@ 0x24
 8002f7a:	461a      	mov	r2, r3
 8002f7c:	693b      	ldr	r3, [r7, #16]
 8002f7e:	4293      	cmp	r3, r2
 8002f80:	d3b5      	bcc.n	8002eee <USB_DevInit+0x1b2>
  }

  USBx_DEVICE->DIEPMSK &= ~(USB_OTG_DIEPMSK_TXFURM);
 8002f82:	68fb      	ldr	r3, [r7, #12]
 8002f84:	f503 6300 	add.w	r3, r3, #2048	@ 0x800
 8002f88:	691b      	ldr	r3, [r3, #16]
 8002f8a:	68fa      	ldr	r2, [r7, #12]
 8002f8c:	f502 6200 	add.w	r2, r2, #2048	@ 0x800
 8002f90:	f423 7380 	bic.w	r3, r3, #256	@ 0x100
 8002f94:	6113      	str	r3, [r2, #16]

  /* Disable all interrupts. */
  USBx->GINTMSK = 0U;
 8002f96:	687b      	ldr	r3, [r7, #4]
 8002f98:	2200      	movs	r2, #0
 8002f9a:	619a      	str	r2, [r3, #24]

  /* Clear any pending interrupts */
  USBx->GINTSTS = 0xBFFFFFFFU;
 8002f9c:	687b      	ldr	r3, [r7, #4]
 8002f9e:	f06f 4280 	mvn.w	r2, #1073741824	@ 0x40000000
 8002fa2:	615a      	str	r2, [r3, #20]

  /* Enable the common interrupts */
  if (cfg.dma_enable == 0U)
 8002fa4:	f897 3026 	ldrb.w	r3, [r7, #38]	@ 0x26
 8002fa8:	2b00      	cmp	r3, #0
 8002faa:	d105      	bne.n	8002fb8 <USB_DevInit+0x27c>
  {
    USBx->GINTMSK |= USB_OTG_GINTMSK_RXFLVLM;
 8002fac:	687b      	ldr	r3, [r7, #4]
 8002fae:	699b      	ldr	r3, [r3, #24]
 8002fb0:	f043 0210 	orr.w	r2, r3, #16
 8002fb4:	687b      	ldr	r3, [r7, #4]
 8002fb6:	619a      	str	r2, [r3, #24]
  }

  /* Enable interrupts matching to the Device mode ONLY */
  USBx->GINTMSK |= USB_OTG_GINTMSK_USBSUSPM | USB_OTG_GINTMSK_USBRST |
 8002fb8:	687b      	ldr	r3, [r7, #4]
 8002fba:	699a      	ldr	r2, [r3, #24]
 8002fbc:	4b10      	ldr	r3, [pc, #64]	@ (8003000 <USB_DevInit+0x2c4>)
 8002fbe:	4313      	orrs	r3, r2
 8002fc0:	687a      	ldr	r2, [r7, #4]
 8002fc2:	6193      	str	r3, [r2, #24]
                   USB_OTG_GINTMSK_ENUMDNEM | USB_OTG_GINTMSK_IEPINT |
                   USB_OTG_GINTMSK_OEPINT   | USB_OTG_GINTMSK_IISOIXFRM |
                   USB_OTG_GINTMSK_PXFRM_IISOOXFRM | USB_OTG_GINTMSK_WUIM;

  if (cfg.Sof_enable != 0U)
 8002fc4:	f897 302a 	ldrb.w	r3, [r7, #42]	@ 0x2a
 8002fc8:	2b00      	cmp	r3, #0
 8002fca:	d005      	beq.n	8002fd8 <USB_DevInit+0x29c>
  {
    USBx->GINTMSK |= USB_OTG_GINTMSK_SOFM;
 8002fcc:	687b      	ldr	r3, [r7, #4]
 8002fce:	699b      	ldr	r3, [r3, #24]
 8002fd0:	f043 0208 	orr.w	r2, r3, #8
 8002fd4:	687b      	ldr	r3, [r7, #4]
 8002fd6:	619a      	str	r2, [r3, #24]
  }

  if (cfg.vbus_sensing_enable == 1U)
 8002fd8:	f897 302e 	ldrb.w	r3, [r7, #46]	@ 0x2e
 8002fdc:	2b01      	cmp	r3, #1
 8002fde:	d107      	bne.n	8002ff0 <USB_DevInit+0x2b4>
  {
    USBx->GINTMSK |= (USB_OTG_GINTMSK_SRQIM | USB_OTG_GINTMSK_OTGINT);
 8002fe0:	687b      	ldr	r3, [r7, #4]
 8002fe2:	699b      	ldr	r3, [r3, #24]
 8002fe4:	f043 4380 	orr.w	r3, r3, #1073741824	@ 0x40000000
 8002fe8:	f043 0304 	orr.w	r3, r3, #4
 8002fec:	687a      	ldr	r2, [r7, #4]
 8002fee:	6193      	str	r3, [r2, #24]
  }

  return ret;
 8002ff0:	7dfb      	ldrb	r3, [r7, #23]
}
 8002ff2:	4618      	mov	r0, r3
 8002ff4:	3718      	adds	r7, #24
 8002ff6:	46bd      	mov	sp, r7
 8002ff8:	e8bd 4080 	ldmia.w	sp!, {r7, lr}
 8002ffc:	b004      	add	sp, #16
 8002ffe:	4770      	bx	lr
 8003000:	803c3800 	.word	0x803c3800

08003004 <USB_FlushTxFifo>:
  *         This parameter can be a value from 1 to 15
            15 means Flush all Tx FIFOs
  * @retval HAL status
  */
HAL_StatusTypeDef USB_FlushTxFifo(USB_OTG_GlobalTypeDef *USBx, uint32_t num)
{
 8003004:	b480      	push	{r7}
 8003006:	b085      	sub	sp, #20
 8003008:	af00      	add	r7, sp, #0
 800300a:	6078      	str	r0, [r7, #4]
 800300c:	6039      	str	r1, [r7, #0]
  __IO uint32_t count = 0U;
 800300e:	2300      	movs	r3, #0
 8003010:	60fb      	str	r3, [r7, #12]

  /* Wait for AHB master IDLE state. */
  do
  {
    count++;
 8003012:	68fb      	ldr	r3, [r7, #12]
 8003014:	3301      	adds	r3, #1
 8003016:	60fb      	str	r3, [r7, #12]

    if (count > HAL_USB_TIMEOUT)
 8003018:	68fb      	ldr	r3, [r7, #12]
 800301a:	f1b3 6f70 	cmp.w	r3, #251658240	@ 0xf000000
 800301e:	d901      	bls.n	8003024 <USB_FlushTxFifo+0x20>
    {
      return HAL_TIMEOUT;
 8003020:	2303      	movs	r3, #3
 8003022:	e01b      	b.n	800305c <USB_FlushTxFifo+0x58>
    }
  } while ((USBx->GRSTCTL & USB_OTG_GRSTCTL_AHBIDL) == 0U);
 8003024:	687b      	ldr	r3, [r7, #4]
 8003026:	691b      	ldr	r3, [r3, #16]
 8003028:	2b00      	cmp	r3, #0
 800302a:	daf2      	bge.n	8003012 <USB_FlushTxFifo+0xe>

  /* Flush TX Fifo */
  count = 0U;
 800302c:	2300      	movs	r3, #0
 800302e:	60fb      	str	r3, [r7, #12]
  USBx->GRSTCTL = (USB_OTG_GRSTCTL_TXFFLSH | (num << 6));
 8003030:	683b      	ldr	r3, [r7, #0]
 8003032:	019b      	lsls	r3, r3, #6
 8003034:	f043 0220 	orr.w	r2, r3, #32
 8003038:	687b      	ldr	r3, [r7, #4]
 800303a:	611a      	str	r2, [r3, #16]

  do
  {
    count++;
 800303c:	68fb      	ldr	r3, [r7, #12]
 800303e:	3301      	adds	r3, #1
 8003040:	60fb      	str	r3, [r7, #12]

    if (count > HAL_USB_TIMEOUT)
 8003042:	68fb      	ldr	r3, [r7, #12]
 8003044:	f1b3 6f70 	cmp.w	r3, #251658240	@ 0xf000000
 8003048:	d901      	bls.n	800304e <USB_FlushTxFifo+0x4a>
    {
      return HAL_TIMEOUT;
 800304a:	2303      	movs	r3, #3
 800304c:	e006      	b.n	800305c <USB_FlushTxFifo+0x58>
    }
  } while ((USBx->GRSTCTL & USB_OTG_GRSTCTL_TXFFLSH) == USB_OTG_GRSTCTL_TXFFLSH);
 800304e:	687b      	ldr	r3, [r7, #4]
 8003050:	691b      	ldr	r3, [r3, #16]
 8003052:	f003 0320 	and.w	r3, r3, #32
 8003056:	2b20      	cmp	r3, #32
 8003058:	d0f0      	beq.n	800303c <USB_FlushTxFifo+0x38>

  return HAL_OK;
 800305a:	2300      	movs	r3, #0
}
 800305c:	4618      	mov	r0, r3
 800305e:	3714      	adds	r7, #20
 8003060:	46bd      	mov	sp, r7
 8003062:	f85d 7b04 	ldr.w	r7, [sp], #4
 8003066:	4770      	bx	lr

08003068 <USB_FlushRxFifo>:
  * @brief  USB_FlushRxFifo  Flush Rx FIFO
  * @param  USBx  Selected device
  * @retval HAL status
  */
HAL_StatusTypeDef USB_FlushRxFifo(USB_OTG_GlobalTypeDef *USBx)
{
 8003068:	b480      	push	{r7}
 800306a:	b085      	sub	sp, #20
 800306c:	af00      	add	r7, sp, #0
 800306e:	6078      	str	r0, [r7, #4]
  __IO uint32_t count = 0U;
 8003070:	2300      	movs	r3, #0
 8003072:	60fb      	str	r3, [r7, #12]

  /* Wait for AHB master IDLE state. */
  do
  {
    count++;
 8003074:	68fb      	ldr	r3, [r7, #12]
 8003076:	3301      	adds	r3, #1
 8003078:	60fb      	str	r3, [r7, #12]

    if (count > HAL_USB_TIMEOUT)
 800307a:	68fb      	ldr	r3, [r7, #12]
 800307c:	f1b3 6f70 	cmp.w	r3, #251658240	@ 0xf000000
 8003080:	d901      	bls.n	8003086 <USB_FlushRxFifo+0x1e>
    {
      return HAL_TIMEOUT;
 8003082:	2303      	movs	r3, #3
 8003084:	e018      	b.n	80030b8 <USB_FlushRxFifo+0x50>
    }
  } while ((USBx->GRSTCTL & USB_OTG_GRSTCTL_AHBIDL) == 0U);
 8003086:	687b      	ldr	r3, [r7, #4]
 8003088:	691b      	ldr	r3, [r3, #16]
 800308a:	2b00      	cmp	r3, #0
 800308c:	daf2      	bge.n	8003074 <USB_FlushRxFifo+0xc>

  /* Flush RX Fifo */
  count = 0U;
 800308e:	2300      	movs	r3, #0
 8003090:	60fb      	str	r3, [r7, #12]
  USBx->GRSTCTL = USB_OTG_GRSTCTL_RXFFLSH;
 8003092:	687b      	ldr	r3, [r7, #4]
 8003094:	2210      	movs	r2, #16
 8003096:	611a      	str	r2, [r3, #16]

  do
  {
    count++;
 8003098:	68fb      	ldr	r3, [r7, #12]
 800309a:	3301      	adds	r3, #1
 800309c:	60fb      	str	r3, [r7, #12]

    if (count > HAL_USB_TIMEOUT)
 800309e:	68fb      	ldr	r3, [r7, #12]
 80030a0:	f1b3 6f70 	cmp.w	r3, #251658240	@ 0xf000000
 80030a4:	d901      	bls.n	80030aa <USB_FlushRxFifo+0x42>
    {
      return HAL_TIMEOUT;
 80030a6:	2303      	movs	r3, #3
 80030a8:	e006      	b.n	80030b8 <USB_FlushRxFifo+0x50>
    }
  } while ((USBx->GRSTCTL & USB_OTG_GRSTCTL_RXFFLSH) == USB_OTG_GRSTCTL_RXFFLSH);
 80030aa:	687b      	ldr	r3, [r7, #4]
 80030ac:	691b      	ldr	r3, [r3, #16]
 80030ae:	f003 0310 	and.w	r3, r3, #16
 80030b2:	2b10      	cmp	r3, #16
 80030b4:	d0f0      	beq.n	8003098 <USB_FlushRxFifo+0x30>

  return HAL_OK;
 80030b6:	2300      	movs	r3, #0
}
 80030b8:	4618      	mov	r0, r3
 80030ba:	3714      	adds	r7, #20
 80030bc:	46bd      	mov	sp, r7
 80030be:	f85d 7b04 	ldr.w	r7, [sp], #4
 80030c2:	4770      	bx	lr

080030c4 <USB_SetDevSpeed>:
  *            @arg USB_OTG_SPEED_HIGH_IN_FULL: High speed core in Full Speed mode
  *            @arg USB_OTG_SPEED_FULL: Full speed mode
  * @retval  Hal status
  */
HAL_StatusTypeDef USB_SetDevSpeed(const USB_OTG_GlobalTypeDef *USBx, uint8_t speed)
{
 80030c4:	b480      	push	{r7}
 80030c6:	b085      	sub	sp, #20
 80030c8:	af00      	add	r7, sp, #0
 80030ca:	6078      	str	r0, [r7, #4]
 80030cc:	460b      	mov	r3, r1
 80030ce:	70fb      	strb	r3, [r7, #3]
  uint32_t USBx_BASE = (uint32_t)USBx;
 80030d0:	687b      	ldr	r3, [r7, #4]
 80030d2:	60fb      	str	r3, [r7, #12]

  USBx_DEVICE->DCFG |= speed;
 80030d4:	68fb      	ldr	r3, [r7, #12]
 80030d6:	f503 6300 	add.w	r3, r3, #2048	@ 0x800
 80030da:	681a      	ldr	r2, [r3, #0]
 80030dc:	78fb      	ldrb	r3, [r7, #3]
 80030de:	68f9      	ldr	r1, [r7, #12]
 80030e0:	f501 6100 	add.w	r1, r1, #2048	@ 0x800
 80030e4:	4313      	orrs	r3, r2
 80030e6:	600b      	str	r3, [r1, #0]
  return HAL_OK;
 80030e8:	2300      	movs	r3, #0
}
 80030ea:	4618      	mov	r0, r3
 80030ec:	3714      	adds	r7, #20
 80030ee:	46bd      	mov	sp, r7
 80030f0:	f85d 7b04 	ldr.w	r7, [sp], #4
 80030f4:	4770      	bx	lr

080030f6 <USB_DevDisconnect>:
  * @brief  USB_DevDisconnect : Disconnect the USB device by disabling Rpu
  * @param  USBx  Selected device
  * @retval HAL status
  */
HAL_StatusTypeDef USB_DevDisconnect(const USB_OTG_GlobalTypeDef *USBx)
{
 80030f6:	b480      	push	{r7}
 80030f8:	b085      	sub	sp, #20
 80030fa:	af00      	add	r7, sp, #0
 80030fc:	6078      	str	r0, [r7, #4]
  uint32_t USBx_BASE = (uint32_t)USBx;
 80030fe:	687b      	ldr	r3, [r7, #4]
 8003100:	60fb      	str	r3, [r7, #12]

  /* In case phy is stopped, ensure to ungate and restore the phy CLK */
  USBx_PCGCCTL &= ~(USB_OTG_PCGCCTL_STOPCLK | USB_OTG_PCGCCTL_GATECLK);
 8003102:	68fb      	ldr	r3, [r7, #12]
 8003104:	f503 6360 	add.w	r3, r3, #3584	@ 0xe00
 8003108:	681b      	ldr	r3, [r3, #0]
 800310a:	68fa      	ldr	r2, [r7, #12]
 800310c:	f502 6260 	add.w	r2, r2, #3584	@ 0xe00
 8003110:	f023 0303 	bic.w	r3, r3, #3
 8003114:	6013      	str	r3, [r2, #0]

  USBx_DEVICE->DCTL |= USB_OTG_DCTL_SDIS;
 8003116:	68fb      	ldr	r3, [r7, #12]
 8003118:	f503 6300 	add.w	r3, r3, #2048	@ 0x800
 800311c:	685b      	ldr	r3, [r3, #4]
 800311e:	68fa      	ldr	r2, [r7, #12]
 8003120:	f502 6200 	add.w	r2, r2, #2048	@ 0x800
 8003124:	f043 0302 	orr.w	r3, r3, #2
 8003128:	6053      	str	r3, [r2, #4]

  return HAL_OK;
 800312a:	2300      	movs	r3, #0
}
 800312c:	4618      	mov	r0, r3
 800312e:	3714      	adds	r7, #20
 8003130:	46bd      	mov	sp, r7
 8003132:	f85d 7b04 	ldr.w	r7, [sp], #4
 8003136:	4770      	bx	lr

08003138 <USB_GetMode>:
  *          This parameter can be one of these values:
  *           0 : Host
  *           1 : Device
  */
uint32_t USB_GetMode(const USB_OTG_GlobalTypeDef *USBx)
{
 8003138:	b480      	push	{r7}
 800313a:	b083      	sub	sp, #12
 800313c:	af00      	add	r7, sp, #0
 800313e:	6078      	str	r0, [r7, #4]
  return ((USBx->GINTSTS) & 0x1U);
 8003140:	687b      	ldr	r3, [r7, #4]
 8003142:	695b      	ldr	r3, [r3, #20]
 8003144:	f003 0301 	and.w	r3, r3, #1
}
 8003148:	4618      	mov	r0, r3
 800314a:	370c      	adds	r7, #12
 800314c:	46bd      	mov	sp, r7
 800314e:	f85d 7b04 	ldr.w	r7, [sp], #4
 8003152:	4770      	bx	lr

08003154 <USB_CoreReset>:
  * @brief  Reset the USB Core (needed after USB clock settings change)
  * @param  USBx  Selected device
  * @retval HAL status
  */
static HAL_StatusTypeDef USB_CoreReset(USB_OTG_GlobalTypeDef *USBx)
{
 8003154:	b480      	push	{r7}
 8003156:	b085      	sub	sp, #20
 8003158:	af00      	add	r7, sp, #0
 800315a:	6078      	str	r0, [r7, #4]
  __IO uint32_t count = 0U;
 800315c:	2300      	movs	r3, #0
 800315e:	60fb      	str	r3, [r7, #12]

  /* Wait for AHB master IDLE state. */
  do
  {
    count++;
 8003160:	68fb      	ldr	r3, [r7, #12]
 8003162:	3301      	adds	r3, #1
 8003164:	60fb      	str	r3, [r7, #12]

    if (count > HAL_USB_TIMEOUT)
 8003166:	68fb      	ldr	r3, [r7, #12]
 8003168:	f1b3 6f70 	cmp.w	r3, #251658240	@ 0xf000000
 800316c:	d901      	bls.n	8003172 <USB_CoreReset+0x1e>
    {
      return HAL_TIMEOUT;
 800316e:	2303      	movs	r3, #3
 8003170:	e01b      	b.n	80031aa <USB_CoreReset+0x56>
    }
  } while ((USBx->GRSTCTL & USB_OTG_GRSTCTL_AHBIDL) == 0U);
 8003172:	687b      	ldr	r3, [r7, #4]
 8003174:	691b      	ldr	r3, [r3, #16]
 8003176:	2b00      	cmp	r3, #0
 8003178:	daf2      	bge.n	8003160 <USB_CoreReset+0xc>

  /* Core Soft Reset */
  count = 0U;
 800317a:	2300      	movs	r3, #0
 800317c:	60fb      	str	r3, [r7, #12]
  USBx->GRSTCTL |= USB_OTG_GRSTCTL_CSRST;
 800317e:	687b      	ldr	r3, [r7, #4]
 8003180:	691b      	ldr	r3, [r3, #16]
 8003182:	f043 0201 	orr.w	r2, r3, #1
 8003186:	687b      	ldr	r3, [r7, #4]
 8003188:	611a      	str	r2, [r3, #16]

  do
  {
    count++;
 800318a:	68fb      	ldr	r3, [r7, #12]
 800318c:	3301      	adds	r3, #1
 800318e:	60fb      	str	r3, [r7, #12]

    if (count > HAL_USB_TIMEOUT)
 8003190:	68fb      	ldr	r3, [r7, #12]
 8003192:	f1b3 6f70 	cmp.w	r3, #251658240	@ 0xf000000
 8003196:	d901      	bls.n	800319c <USB_CoreReset+0x48>
    {
      return HAL_TIMEOUT;
 8003198:	2303      	movs	r3, #3
 800319a:	e006      	b.n	80031aa <USB_CoreReset+0x56>
    }
  } while ((USBx->GRSTCTL & USB_OTG_GRSTCTL_CSRST) == USB_OTG_GRSTCTL_CSRST);
 800319c:	687b      	ldr	r3, [r7, #4]
 800319e:	691b      	ldr	r3, [r3, #16]
 80031a0:	f003 0301 	and.w	r3, r3, #1
 80031a4:	2b01      	cmp	r3, #1
 80031a6:	d0f0      	beq.n	800318a <USB_CoreReset+0x36>

  return HAL_OK;
 80031a8:	2300      	movs	r3, #0
}
 80031aa:	4618      	mov	r0, r3
 80031ac:	3714      	adds	r7, #20
 80031ae:	46bd      	mov	sp, r7
 80031b0:	f85d 7b04 	ldr.w	r7, [sp], #4
 80031b4:	4770      	bx	lr

080031b6 <memset>:
 80031b6:	4402      	add	r2, r0
 80031b8:	4603      	mov	r3, r0
 80031ba:	4293      	cmp	r3, r2
 80031bc:	d100      	bne.n	80031c0 <memset+0xa>
 80031be:	4770      	bx	lr
 80031c0:	f803 1b01 	strb.w	r1, [r3], #1
 80031c4:	e7f9      	b.n	80031ba <memset+0x4>
	...

080031c8 <__libc_init_array>:
 80031c8:	b570      	push	{r4, r5, r6, lr}
 80031ca:	4d0d      	ldr	r5, [pc, #52]	@ (8003200 <__libc_init_array+0x38>)
 80031cc:	4c0d      	ldr	r4, [pc, #52]	@ (8003204 <__libc_init_array+0x3c>)
 80031ce:	1b64      	subs	r4, r4, r5
 80031d0:	10a4      	asrs	r4, r4, #2
 80031d2:	2600      	movs	r6, #0
 80031d4:	42a6      	cmp	r6, r4
 80031d6:	d109      	bne.n	80031ec <__libc_init_array+0x24>
 80031d8:	4d0b      	ldr	r5, [pc, #44]	@ (8003208 <__libc_init_array+0x40>)
 80031da:	4c0c      	ldr	r4, [pc, #48]	@ (800320c <__libc_init_array+0x44>)
 80031dc:	f000 f818 	bl	8003210 <_init>
 80031e0:	1b64      	subs	r4, r4, r5
 80031e2:	10a4      	asrs	r4, r4, #2
 80031e4:	2600      	movs	r6, #0
 80031e6:	42a6      	cmp	r6, r4
 80031e8:	d105      	bne.n	80031f6 <__libc_init_array+0x2e>
 80031ea:	bd70      	pop	{r4, r5, r6, pc}
 80031ec:	f855 3b04 	ldr.w	r3, [r5], #4
 80031f0:	4798      	blx	r3
 80031f2:	3601      	adds	r6, #1
 80031f4:	e7ee      	b.n	80031d4 <__libc_init_array+0xc>
 80031f6:	f855 3b04 	ldr.w	r3, [r5], #4
 80031fa:	4798      	blx	r3
 80031fc:	3601      	adds	r6, #1
 80031fe:	e7f2      	b.n	80031e6 <__libc_init_array+0x1e>
 8003200:	08003250 	.word	0x08003250
 8003204:	08003250 	.word	0x08003250
 8003208:	08003250 	.word	0x08003250
 800320c:	08003254 	.word	0x08003254

08003210 <_init>:
 8003210:	b5f8      	push	{r3, r4, r5, r6, r7, lr}
 8003212:	bf00      	nop
 8003214:	bcf8      	pop	{r3, r4, r5, r6, r7}
 8003216:	bc08      	pop	{r3}
 8003218:	469e      	mov	lr, r3
 800321a:	4770      	bx	lr

0800321c <_fini>:
 800321c:	b5f8      	push	{r3, r4, r5, r6, r7, lr}
 800321e:	bf00      	nop
 8003220:	bcf8      	pop	{r3, r4, r5, r6, r7}
 8003222:	bc08      	pop	{r3}
 8003224:	469e      	mov	lr, r3
 8003226:	4770      	bx	lr
